******************************************************************************
                  TI ARM Linker PC v15.12.3                    
******************************************************************************
>> Linked Wed Mar 07 16:10:24 2018

OUTPUT FILE NAME:   <Test.out>
ENTRY POINT SYMBOL: "_c_int00"  address: c30510e4


MEMORY CONFIGURATION

         name            origin    length      used     unused   attr    fill
----------------------  --------  ---------  --------  --------  ----  --------
  L3_CBA_RAM            80000000   00020000  00000000  00020000  RW X
  DDR                   c3000000   01000000  00058cf4  00fa730c  RWIX
  IRAM                  ffff0000   00002000  00000368  00001c98  RW X


SEGMENT ALLOCATION MAP

run origin  load origin   length   init length attrs members
----------  ----------- ---------- ----------- ----- -------
c3000000    c3000000    0003f030   00000000    rw-
  c3000000    c3000000    0003f030   00000000    rw- .bss
c303f030    c303f030    00013d00   00013d00    r-x
  c303f030    c303f030    00013d00   00013d00    r-x .text
c3052d30    c3052d30    00000aa9   00000000    rw-
  c3052d30    c3052d30    00000aa9   00000000    rw- .data
c30537dc    c30537dc    000006db   000006db    r--
  c30537dc    c30537dc    000006db   000006db    r-- .const
c3054000    c3054000    00004800   00000000    rw-
  c3054000    c3054000    00004000   00000000    rw- ti.sysbios.family.arm.arm9.mmuTableSection
  c3058000    c3058000    00000800   00000000    rw- .stack
c3058800    c3058800    00000640   00000640    r--
  c3058800    c3058800    00000640   00000640    r-- .cinit
ffff0000    ffff0000    00000368   00000368    r-x
  ffff0000    ffff0000    00000040   00000040    r-- .vecs
  ffff0040    ffff0040    00000328   00000328    r-x .vectorTable


SECTION ALLOCATION MAP

 output                                  attributes/
section   page    origin      length       input sections
--------  ----  ----------  ----------   ----------------
.bss       0    c3000000    0003f030     UNINITIALIZED
                  c3000000    0003c410     (.common:ti_sysbios_heaps_HeapMem_Instance_State_0_buf__A)
                  c303c410    00001000     app_pe9.oe9 (.bss:taskStackSection)
                  c303d410    00000800     (.common:ti_sysbios_family_arm_exc_Exception_Module_State_0_excStack_0__A)
                  c303dc10    00000400     (.common:ti_sysbios_family_arm_da830_Hwi_Module_State_0_fiqStack__A)
                  c303e010    00000014     (.common:val)
                  c303e024    0000000c     laco.obj (.bss:hc595_pins)
                  c303e030    0000000c     mcp3021.obj (.bss:mcp_ch)
                  c303e03c    00000008     rtsv5_A_le_eabi.lib : trgdrv.obj (.bss:parmbuf)
                  c303e044    00000004     drivers.lib : edma.obj (.bss)
                  c303e048    00000004     (.common:board)
                  c303e04c    00000004     (.common:hc165_pins)
                  c303e050    00000030     --HOLE--
                  c303e080    00000400     (.common:ti_uia_loggers_LoggerStopMode_Instance_State_1_packetArray__A)
                  c303e480    00000400     (.common:ti_uia_loggers_LoggerStopMode_Instance_State_2_packetArray__A)
                  c303e880    00000200     (.common:ti_uia_loggers_LoggerStopMode_Instance_State_0_packetArray__A)
                  c303ea80    00000140     (.common:ti_sysbios_knl_Mailbox_Instance_State_0_allocBuf__A)
                  c303ebc0    00000120     rtsv5_A_le_eabi.lib : trgmsg.obj (.bss:_CIOBUF_)
                  c303ece0    00000118     (.common:ti_sysbios_knl_Mailbox_Instance_State_1_allocBuf__A)
                  c303edf8    00000080     (.common:xdc_runtime_LoggerBuf_Instance_State_0_entryArr__A)
                  c303ee78    00000080     (.common:xdc_runtime_SysMin_Module_State_0_outbuf__A)
                  c303eef8    00000008     --HOLE--
                  c303ef00    00000030     (.common:ti_uia_loggers_LoggerStopMode_Instance_State_0_hdr__A)
                  c303ef30    00000050     --HOLE--
                  c303ef80    00000030     (.common:ti_uia_loggers_LoggerStopMode_Instance_State_1_hdr__A)
                  c303efb0    00000050     --HOLE--
                  c303f000    00000030     (.common:ti_uia_loggers_LoggerStopMode_Instance_State_2_hdr__A)

.neardata 
*          0    c303f030    00000000     UNINITIALIZED

.rodata    0    c303f030    00000000     UNINITIALIZED

ti.sysbios.family.arm.arm9.mmuTableSection 
*          0    c3054000    00004000     UNINITIALIZED
                  c3054000    00004000     app_pe9.oe9 (ti.sysbios.family.arm.arm9.mmuTableSection)

.stack     0    c3058000    00000800     UNINITIALIZED
                  c3058000    00000800     --HOLE--

.cinit     0    c3058800    00000640     
                  c3058800    00000617     (.cinit..data.load) [load image, compression = rle]
                  c3058e17    00000001     --HOLE-- [fill = 0]
                  c3058e18    0000000d     (.cinit..bss.load) [load image, compression = rle]
                  c3058e25    00000003     --HOLE-- [fill = 0]
                  c3058e28    00000008     (__TI_handler_table)
                  c3058e30    00000010     (__TI_cinit_table)

.init_array 
*          0    c3000000    00000000     UNINITIALIZED

.text      0    c303f030    00013d00     
                  c303f030    0000194c     drivers.lib : edma.obj (.text)
                  c304097c    0000179c     tdc.obj (.text)
                  c3042118    00000f8c     board.obj (.text)
                  c30430a4    00000dfc     drivers.lib : ehrpwm.obj (.text)
                  c3043ea0    000008e4     laco.obj (.text)
                  c3044784    0000071c     connector.obj (.text)
                  c3044ea0    0000070c     spi.obj (.text)
                  c30455ac    000006bc     drivers.lib : gpio.obj (.text)
                  c3045c68    00000604                 : spi.obj (.text)
                  c304626c    000005e8                 : uart.obj (.text)
                  c3046854    0000058c     pwm.obj (.text)
                  c3046de0    0000058c     uart.obj (.text)
                  c304736c    0000055c     drivers.lib : i2c.obj (.text)
                  c30478c8    00000550     rtsv5_A_le_eabi.lib : trgdrv.obj (.text)
                  c3047e18    00000540     ti.targets.arm.rtsarm.ae9 : System.oe9 (.text:xdc_runtime_System_doPrint__I)
                  c3048358    00000500     ad7265.obj (.text)
                  c3048858    000004bc     sysbios.ae9 : BIOS.obj (.text:ti_sysbios_knl_Semaphore_pend__E)
                  c3048d14    00000428     I2C.obj (.text)
                  c304913c    0000038c     led.obj (.text)
                  c30494c8    00000368     sysbios.ae9 : BIOS.obj (.text:ti_sysbios_heaps_HeapMem_freeUnprotected__E)
                  c3049830    000002f4                 : BIOS.obj (.text:ti_sysbios_heaps_HeapMem_allocUnprotected__E)
                  c3049b24    000002e8                 : BIOS.obj (.text:ti_sysbios_family_arm_exc_Exception_excDumpContext__I)
                  c3049e0c    000002b8     rtsv5_A_le_eabi.lib : ull_div32.obj (.text)
                  c304a0c4    0000029c     dipswitch.obj (.text)
                  c304a360    0000027c     sysbios.ae9 : BIOS.obj (.text:ti_sysbios_family_arm_exc_Exception_excHandler__I)
                  c304a5dc    00000258                 : BIOS.obj (.text:ti_sysbios_knl_Task_Module_startup__E)
                  c304a834    00000238                 : BIOS.obj (.text:ti_sysbios_timers_timer64_Timer_deviceConfig__I)
                  c304aa6c    000001f8                 : BIOS.obj (.text:ti_sysbios_heaps_HeapTrack_free__E)
                  c304ac64    000001f0     app_pe9.oe9 (.text:ti_sysbios_family_arm_arm9_Mmu_initTableBuf__I)
                  c304ae54    000001ec     sysbios.ae9 : BIOS.obj (.text:ti_sysbios_heaps_HeapMem_Instance_init__E)
                  c304b040    000001e4                 : BIOS.obj (.text:ti_sysbios_knl_Semaphore_post__E)
                  c304b224    000001e4     ti.targets.arm.rtsarm.ae9 : LoggerBuf.oe9 (.text:xdc_runtime_LoggerBuf_write8__E)
                  c304b408    000001e0     app_pe9.oe9 (.text:ti_uia_loggers_LoggerStopMode_writeMemoryRange__E)
                  c304b5e8    000001b8     sysbios.ae9 : BIOS.obj (.text:ti_sysbios_knl_Clock_workFunc__E)
                  c304b7a0    000001b4                 : BIOS.obj (.text:ti_sysbios_family_arm_da830_Hwi_reconfig__E)
                  c304b954    000001b0                 : BIOS.obj (.text:ti_sysbios_knl_Swi_run__I)
                  c304bb04    000001a4     ti.targets.arm.rtsarm.ae9 : Error.oe9 (.text:xdc_runtime_Error_policyDefault__E)
                  c304bca8    000001a0                               : Core-mem.oe9 (.text:xdc_runtime_Core_createObject__I)
                  c304be48    00000190     rtsv5_A_le_eabi.lib : fd_div32.obj (.text)
                  c304bfd8    00000188     sysbios.ae9 : BIOS.obj (.text:ti_sysbios_family_arm_da830_Hwi_dispatchIRQC__I)
                  c304c160    00000188     app_pe9.oe9 (.text:ti_uia_loggers_LoggerStopMode_write8__E)
                  c304c2e8    00000188     app_pe9.oe9 (.text:xdc_runtime_System_printfExtend__I)
                  c304c470    00000180     rtsv5_A_le_eabi.lib : memcpy32.obj (.text)
                  c304c5f0    00000174     mcp3021.obj (.text)
                  c304c764    00000170     sysbios.ae9 : BIOS.obj (.text:ti_sysbios_timers_timer64_TimestampProvider_get64__E)
                  c304c8d4    0000016c                 : BIOS.obj (.text:ti_sysbios_knl_Task_exit__E)
                  c304ca40    00000168     app_pe9.oe9 (.text:ti_uia_loggers_LoggerStopMode_write4__E)
                  c304cba8    00000164     sysbios.ae9 : BIOS.obj (.text:ti_sysbios_timers_timer64_Timer_start__E)
                  c304cd0c    00000164                 : BIOS.obj (.text:ti_sysbios_timers_timer64_TimestampProvider_get32__E)
                  c304ce70    00000160                 : BIOS.obj (.text:ti_sysbios_timers_timer64_Timer_setPeriodMicroSecs__E)
                  c304cfd0    0000015c     watchdog.obj (.text)
                  c304d12c    00000158     app_pe9.oe9 (.text:ti_uia_loggers_LoggerStopMode_write2__E)
                  c304d284    00000154     drivers.lib : psc.obj (.text)
                  c304d3d8    00000154     ti.targets.arm.rtsarm.ae9 : Startup.oe9 (.text:xdc_runtime_Startup_startMods__I)
                  c304d52c    00000150     app_pe9.oe9 (.text:ti_uia_loggers_LoggerStopMode_write1__E)
                  c304d67c    00000144     main.obj (.text)
                  c304d7c0    00000140     sysbios.ae9 : BIOS.obj (.text:ti_sysbios_family_arm_da830_Hwi_dispatchFIQC__I)
                  c304d900    00000140                 : BIOS.obj (.text:ti_sysbios_knl_Task_checkStacks__E)
                  c304da40    00000140                 : BIOS.obj (.text:ti_sysbios_timers_timer64_Timer_getFreq__E)
                  c304db80    00000140     ti.targets.arm.rtsarm.ae9 : Core-smem.oe9 (.text:xdc_runtime_Core_constructObject__I)
                  c304dcc0    0000013c     sysbios.ae9 : BIOS.obj (.text:ti_sysbios_knl_Task_schedule__I)
                  c304ddfc    0000013c                 : BIOS.obj (.text:ti_sysbios_knl_Task_startCore__E)
                  c304df38    0000013c     app_pe9.oe9 (.text:ti_uia_loggers_LoggerStopMode_write0__E)
                  c304e074    00000138     ti.targets.arm.rtsarm.ae9 : LoggerBuf.oe9 (.text:xdc_runtime_LoggerBuf_write4__E)
                  c304e1ac    00000128     rtsv5_A_le_eabi.lib : fd_mul32.obj (.text)
                  c304e2d4    00000124     sysbios.ae9 : BIOS.obj (.text:ti_sysbios_knl_Swi_post__E)
                  c304e3f8    00000120                 : BIOS.obj (.text:ti_sysbios_gates_GateMutex_enter__E)
                  c304e518    00000120                 : BIOS.obj (.text:ti_sysbios_utils_Load_updateLoads__E)
                  c304e638    0000011c                 : BIOS.obj (.text:ti_sysbios_utils_Load_idleFxn__E)
                  c304e754    00000114     rtsv5_A_le_eabi.lib : i_div32.obj (.text)
                  c304e868    00000104     sysbios.ae9 : BIOS.obj (.text:ti_sysbios_knl_Semaphore_Instance_init__E)
                  c304e96c    000000fc                 : BIOS.obj (.text:ti_sysbios_knl_Task_blockI__E)
                  c304ea68    000000fc                 : BIOS.obj (.text:ti_sysbios_knl_Task_unblockI__E)
                  c304eb64    000000f8     ti.uia.loggers.ae9 : LoggerStopMode.oe9 (.text:ti_uia_loggers_LoggerStopMode_initQueueDescriptor__E)
                  c304ec5c    000000f8     ti.targets.arm.rtsarm.ae9 : Text.oe9 (.text:xdc_runtime_Text_putSite__E)
                  c304ed54    000000f4     sysbios.ae9 : BIOS.obj (.text:ti_sysbios_heaps_HeapTrack_alloc__E)
                  c304ee48    000000f0     rtsv5_A_le_eabi.lib : u_div32.obj (.text)
                  c304ef38    000000f0     ti.targets.arm.rtsarm.ae9 : LoggerBuf.oe9 (.text:xdc_runtime_LoggerBuf_setFilterLevel__E)
                  c304f028    000000ec     auto_init.ae9 : auto_init.oe9 (.text)
                  c304f114    000000e4     sysbios.ae9 : da830_Hwi_asm.obj (.text:_ti_sysbios_family_arm_da830_Hwi_dispatchIRQ__I)
                  c304f1f8    000000e0                 : BIOS.obj (.text:ti_sysbios_family_arm_da830_Hwi_Instance_init__E)
                  c304f2d8    000000e0                 : BIOS.obj (.text:ti_sysbios_family_arm_da830_Hwi_Module_startup__E)
                  c304f3b8    000000e0                 : BIOS.obj (.text:ti_sysbios_heaps_HeapTrack_Instance_finalize__E)
                  c304f498    000000dc     ti.targets.arm.rtsarm.ae9 : Text.oe9 (.text:xdc_runtime_Text_putMod__E)
                  c304f574    000000d4     sysbios.ae9 : BIOS.obj (.text:ti_sysbios_knl_Mailbox_Module_startup__E)
                  c304f648    000000d0                 : exc_Exception_asm.obj (.text:ti_sysbios_family_arm_exc_Exception_excHandlerAsm__I)
                  c304f718    000000cc     ti.targets.arm.rtsarm.ae9 : LoggerBuf.oe9 (.text:xdc_runtime_LoggerBuf_getFilterLevel__E)
                  c304f7e4    000000c4     ti.uia.runtime.ae9 : QueueDescriptor.oe9 (.text:ti_uia_runtime_QueueDescriptor_addToList__E)
                  c304f8a8    000000c0     sysbios.ae9 : BIOS.obj (.text:ti_sysbios_timers_timer64_Timer_initDevice__I)
                  c304f968    000000b8                 : BIOS.obj (.text:ti_sysbios_knl_Swi_restoreHwi__E)
                  c304fa20    000000b0     rtsv5_A_le_eabi.lib : memset32.obj (.text)
                  c304fad0    000000b0     sysbios.ae9 : BIOS.obj (.text:ti_sysbios_family_arm_da830_Hwi_initIntController__I)
                  c304fb80    000000b0                 : BIOS.obj (.text:ti_sysbios_timers_timer64_TimestampProvider_Module_startup__E)
                  c304fc30    000000b0     ti.targets.arm.rtsarm.ae9 : Memory.oe9 (.text:xdc_runtime_Memory_alloc__E)
                  c304fce0    000000a8     rtsv5_A_le_eabi.lib : trgmsg.obj (.text)
                  c304fd88    000000a0                         : copy_decompress_rle.obj (.text)
                  c304fe28    0000009f     ti.targets.arm.rtsarm.ae9 : Text.oe9 (.text:xdc_runtime_Text_putLab__E)
                  c304fec7    00000001     --HOLE-- [fill = 0]
                  c304fec8    0000009c     sysbios.ae9 : BIOS.obj (.text:ti_sysbios_knl_Clock_logTick__E)
                  c304ff64    0000009c                 : BIOS.obj (.text:ti_sysbios_utils_Load_logCPULoad__I)
                  c3050000    00000098     ti.uia.loggers.ae9 : LoggerStopMode.oe9 (.text:ti_uia_loggers_LoggerStopMode_flush__E)
                  c3050098    00000098     ti.targets.arm.rtsarm.ae9 : Core-mem.oe9 (.text:xdc_runtime_Core_deleteObject__I)
                  c3050130    00000098                               : Error.oe9 (.text:xdc_runtime_Error_print__E)
                  c30501c8    00000098     app_pe9.oe9 (.text:xdc_runtime_LoggerBuf_Object__create__S)
                  c3050260    00000098     ti.targets.arm.rtsarm.ae9 : System.oe9 (.text:xdc_runtime_System_formatNum__I)
                  c30502f8    00000090     rtsv5_A_le_eabi.lib : exit.obj (.text)
                  c3050388    00000090     sysbios.ae9 : BIOS.obj (.text:ti_sysbios_timers_timer64_Timer_stop__E)
                  c3050418    0000008c                 : BIOS.obj (.text:ti_sysbios_heaps_HeapMem_alloc__E)
                  c30504a4    0000008c     ti.targets.arm.rtsarm.ae9 : Startup.oe9 (.text:xdc_runtime_Startup_exec__E)
                  c3050530    00000088     rtsv5_A_le_eabi.lib : cpy_tbl.obj (.text)
                  c30505b8    00000084     sysbios.ae9 : BIOS.obj (.text:ti_sysbios_knl_Swi_schedule__I)
                  c305063c    00000084                 : BIOS.obj (.text:ti_sysbios_knl_Task_allBlockedFunction__I)
                  c30506c0    00000080                 : BIOS.obj (.text:ti_sysbios_heaps_HeapMem_getStats__E)
                  c3050740    00000080                 : BIOS.obj (.text:ti_sysbios_knl_Swi_runLoop__I)
                  c30507c0    0000007c                 : arm_HwiCommon_asm.obj (.text:_ti_sysbios_family_xxx_Hwi_switchToIsrStack)
                  c305083c    0000007c                 : BIOS.obj (.text:ti_sysbios_family_arm_arm9_Cache_startup__I)
                  c30508b8    0000007c     ti.targets.arm.rtsarm.ae9 : Assert.oe9 (.text:xdc_runtime_Assert_raise__I)
                  c3050934    00000074     sysbios.ae9 : BIOS.obj (.text:ti_sysbios_family_arm_arm9_Mmu_disable__E)
                  c30509a8    00000074                 : BIOS.obj (.text:ti_sysbios_family_arm_arm9_Mmu_enable__E)
                  c3050a1c    00000074                 : BIOS.obj (.text:ti_sysbios_family_arm_da830_Hwi_handlerSELF__I)
                  c3050a90    00000074                 : BIOS.obj (.text:ti_sysbios_timers_timer64_Timer_startup__E)
                  c3050b04    00000074     ti.uia.loggers.ae9 : LoggerStopMode.oe9 (.text:ti_uia_loggers_LoggerStopMode_Module_startup__E)
                  c3050b78    00000074                        : LoggerStopMode.oe9 (.text:ti_uia_loggers_LoggerStopMode_initBuffer__I)
                  c3050bec    00000074     ti.targets.arm.rtsarm.ae9 : LoggerBuf.oe9 (.text:xdc_runtime_LoggerBuf_filterOutEvent__I)
                  c3050c60    00000070     sysbios.ae9 : BIOS.obj (.text:ti_sysbios_timers_timer64_Timer_Module_startup__E)
                  c3050cd0    00000070     ti.targets.arm.rtsarm.ae9 : SysMin.oe9 (.text:xdc_runtime_SysMin_flush__E)
                  c3050d40    0000006c     sysbios.ae9 : BIOS.obj (.text:ti_sysbios_family_arm_da830_Hwi_getStackInfo__E)
                  c3050dac    0000006c     ti.targets.arm.rtsarm.ae9 : LoggerBuf.oe9 (.text:xdc_runtime_LoggerBuf_Instance_init__E)
                  c3050e18    00000068     sysbios.ae9 : BIOS.obj (.text:ti_sysbios_family_arm_da830_Hwi_handlerLOWER__I)
                  c3050e80    00000068                 : BIOS.obj (.text:ti_sysbios_family_arm_da830_Hwi_handlerNONE__I)
                  c3050ee8    00000068                 : exc_Exception_asm.obj (.text:ti_sysbios_family_arm_exc_Exception_initCore0__I)
                  c3050f50    00000068                 : BIOS.obj (.text:ti_sysbios_heaps_HeapMem_init__I)
                  c3050fb8    00000068     ti.targets.arm.rtsarm.ae9 : Error.oe9 (.text:xdc_runtime_Error_setX__E)
                  c3051020    00000064                               : Core-params.oe9 (.text:xdc_runtime_Core_assignParams__I)
                  c3051084    00000060                               : Text.oe9 (.text:xdc_runtime_Text_xprintf__I)
                  c30510e4    0000005c     boot.ae9 : boot.oe9 (.text)
                  c3051140    0000005c     rtsv5_A_le_eabi.lib : fd_tou32.obj (.text)
                  c305119c    0000005c     sysbios.ae9 : BIOS.obj (.text:ti_sysbios_knl_Task_restore__E)
                  c30511f8    0000005c     ti.targets.arm.rtsarm.ae9 : SysMin.oe9 (.text:xdc_runtime_SysMin_putch__E)
                  c3051254    00000058     app_pe9.oe9 (.text:malloc)
                  c30512ac    00000058     sysbios.ae9 : BIOS.obj (.text:ti_sysbios_family_arm_TaskSupport_start__E)
                  c3051304    00000058                 : BIOS.obj (.text:ti_sysbios_hal_Hwi_checkStack)
                  c305135c    00000058                 : BIOS.obj (.text:ti_sysbios_knl_Swi_startup__E)
                  c30513b4    00000058     ti.uia.loggers.ae9 : LoggerStopMode.oe9 (.text:ti_uia_loggers_LoggerStopMode_reset__E)
                  c305140c    00000054     sysbios.ae9 : arm_TaskSupport_asm.obj (.text:_ti_sysbios_family_arm_TaskSupport_buildTaskStack)
                  c3051460    00000054                 : BIOS.obj (.text:ti_sysbios_knl_Semaphore_pendTimeout__I)
                  c30514b4    00000054     ti.targets.arm.rtsarm.ae9 : Core-label.oe9 (.text:xdc_runtime_Core_assignLabel__I)
                  c3051508    00000054                               : SysMin.oe9 (.text:xdc_runtime_SysMin_abort__E)
                  c305155c    00000054                               : System.oe9 (.text:xdc_runtime_System_atexit__E)
                  c30515b0    00000054                               : System.oe9 (.text:xdc_runtime_System_putchar__I)
                  c3051604    00000053                               : Text.oe9 (.text:xdc_runtime_Text_printVisFxn__I)
                  c3051657    00000001     --HOLE-- [fill = 0]
                  c3051658    00000050     app_pe9.oe9 (.text:ti_sysbios_gates_GateHwi_Object__create__S)
                  c30516a8    00000050     app_pe9.oe9 (.text:ti_sysbios_gates_GateMutex_Object__create__S)
                  c30516f8    00000050     app_pe9.oe9 (.text:ti_sysbios_heaps_HeapMem_Object__create__S)
                  c3051748    00000050     app_pe9.oe9 (.text:ti_sysbios_heaps_HeapTrack_Object__create__S)
                  c3051798    00000050     app_pe9.oe9 (.text:ti_sysbios_knl_Semaphore_construct)
                  c30517e8    00000050     app_pe9.oe9 (.text:ti_uia_loggers_LoggerStopMode_Object__create__S)
                  c3051838    0000004c     sysbios.ae9 : BIOS.obj (.text:ti_sysbios_hal_Hwi_initStack)
                  c3051884    00000048                 : BIOS.obj (.text:ti_sysbios_family_arm_arm9_Mmu_Module_startup__E)
                  c30518cc    00000048     app_pe9.oe9 (.text:ti_sysbios_knl_Queue_construct)
                  c3051914    00000048     ti.targets.arm.rtsarm.ae9 : System.oe9 (.text:xdc_runtime_System_processAtExit__E)
                  c305195c    00000044     app_pe9.oe9 (.text:ti_sysbios_BIOS_atExitFunc__I)
                  c30519a0    00000044     sysbios.ae9 : BIOS.obj (.text:ti_sysbios_heaps_HeapMem_free__E)
                  c30519e4    00000044     app_pe9.oe9 (.text:ti_sysbios_knl_Clock_doTick__I)
                  c3051a28    00000044     sysbios.ae9 : BIOS.obj (.text:ti_sysbios_knl_Task_restoreHwi__E)
                  c3051a6c    00000044                 : BIOS.obj (.text:ti_sysbios_utils_Load_updateCurrentThreadTime__E)
                  c3051ab0    00000044     app_pe9.oe9 (.text:xdc_runtime_SysMin_output__I)
                  c3051af4    00000044     ti.targets.arm.rtsarm.ae9 : Text.oe9 (.text:xdc_runtime_Text_cordText__E)
                  c3051b38    00000040     adc.obj (.text)
                  c3051b78    00000040     ti.targets.arm.rtsarm.ae9 : LoggerBuf.oe9 (.text:xdc_runtime_LoggerBuf_Module_startup__E)
                  c3051bb8    00000040                               : System.oe9 (.text:xdc_runtime_System_avprintf__E)
                  c3051bf8    0000003c     sysbios.ae9 : da830_Hwi_asm.obj (.text:_ti_sysbios_family_arm_da830_Hwi_init__I)
                  c3051c34    0000003c                 : BIOS.obj (.text:ti_sysbios_heaps_HeapTrack_Instance_init__E)
                  c3051c70    0000003c                 : BIOS.obj (.text:ti_sysbios_knl_Swi_Module_startup__E)
                  c3051cac    0000003c     ti.targets.arm.rtsarm.ae9 : System.oe9 (.text:xdc_runtime_System_vprintf__E)
                  c3051ce8    00000038     app_pe9.oe9 (.text:ti_sysbios_BIOS_startFunc__I)
                  c3051d20    00000038     sysbios.ae9 : BIOS.obj (.text:ti_sysbios_family_arm_da830_TimerSupport_enable__E)
                  c3051d58    00000038                 : BIOS.obj (.text:ti_sysbios_knl_Clock_Module_startup__E)
                  c3051d90    00000038     ti.targets.arm.rtsarm.ae9 : LoggerBuf.oe9 (.text:xdc_runtime_LoggerBuf_reset__E)
                  c3051dc8    00000034     sysbios.ae9 : arm9_Mmu_asm.obj (.text:_ti_sysbios_family_arm_arm9_Mmu_enableAsm)
                  c3051dfc    00000034     rtsv5_A_le_eabi.lib : u_tofd32.obj (.text)
                  c3051e30    00000034     app_pe9.oe9 (.text:ti_sysbios_BIOS_registerRTSLock__I)
                  c3051e64    00000034     app_pe9.oe9 (.text:ti_sysbios_BIOS_removeRTSLock__I)
                  c3051e98    00000034     sysbios.ae9 : BIOS.obj (.text:ti_sysbios_family_arm_arm9_Cache_enable__E)
                  c3051ecc    00000034     app_pe9.oe9 (.text:ti_sysbios_gates_GateMutex_Object__delete__S)
                  c3051f00    00000034     app_pe9.oe9 (.text:ti_sysbios_heaps_HeapTrack_Object__delete__S)
                  c3051f34    00000034     sysbios.ae9 : BIOS.obj (.text:ti_sysbios_knl_Idle_run__E)
                  c3051f68    00000034                 : BIOS.obj (.text:ti_sysbios_knl_Task_enter__I)
                  c3051f9c    00000034     ti.uia.loggers.ae9 : LoggerStopMode.oe9 (.text:ti_uia_loggers_LoggerStopMode_Instance_init__E)
                  c3051fd0    00000034     app_pe9.oe9 (.text:xdc_runtime_LoggerBuf_Object__delete__S)
                  c3052004    00000034     ti.targets.arm.rtsarm.ae9 : SysMin.oe9 (.text:xdc_runtime_SysMin_Module_startup__E)
                  c3052038    00000030     app_pe9.oe9 (.text:ti_sysbios_BIOS_rtsLock__I)
                  c3052068    00000030     app_pe9.oe9 (.text:ti_sysbios_gates_GateHwi_Object__delete__S)
                  c3052098    00000030     sysbios.ae9 : BIOS.obj (.text:ti_sysbios_gates_GateMutex_Instance_init__E)
                  c30520c8    00000030     app_pe9.oe9 (.text:ti_sysbios_heaps_HeapMem_Object__delete__S)
                  c30520f8    00000030     app_pe9.oe9 (.text:ti_uia_loggers_LoggerStopMode_Object__delete__S)
                  c3052128    00000030     ti.targets.arm.rtsarm.ae9 : Error.oe9 (.text:xdc_runtime_Error_raiseX__E)
                  c3052158    00000030                               : Memory.oe9 (.text:xdc_runtime_Memory_valloc__E)
                  c3052188    00000030                               : Registry.oe9 (.text:xdc_runtime_Registry_findById__E)
                  c30521b8    00000030                               : SysMin.oe9 (.text:xdc_runtime_SysMin_exit__E)
                  c30521e8    0000002c     app_pe9.oe9 (.text:ti_sysbios_BIOS_errorRaiseHook__I)
                  c3052214    0000002c     sysbios.ae9 : BIOS.obj (.text:ti_sysbios_family_arm_HwiCommon_Module_startup__E)
                  c3052240    0000002c                 : BIOS.obj (.text:ti_sysbios_family_arm_da830_Hwi_disableInterrupt__E)
                  c305226c    0000002c                 : BIOS.obj (.text:ti_sysbios_family_arm_da830_Hwi_enableInterrupt__E)
                  c3052298    0000002c     app_pe9.oe9 (.text:ti_sysbios_gates_GateHwi_Handle__label__S)
                  c30522c4    0000002c     app_pe9.oe9 (.text:ti_sysbios_gates_GateMutex_Handle__label__S)
                  c30522f0    0000002c     app_pe9.oe9 (.text:ti_sysbios_heaps_HeapMem_Handle__label__S)
                  c305231c    0000002c     app_pe9.oe9 (.text:ti_sysbios_heaps_HeapTrack_Handle__label__S)
                  c3052348    0000002c     app_pe9.oe9 (.text:ti_sysbios_knl_Semaphore_Object__destruct__S)
                  c3052374    0000002c     app_pe9.oe9 (.text:ti_uia_loggers_LoggerStopMode_Handle__label__S)
                  c30523a0    0000002c     ti.targets.arm.rtsarm.ae9 : Error.oe9 (.text:xdc_runtime_Error_check__E)
                  c30523cc    0000002c     app_pe9.oe9 (.text:xdc_runtime_LoggerBuf_Handle__label__S)
                  c30523f8    00000028     app_pe9.oe9 (.text:free)
                  c3052420    00000028     app_pe9.oe9 (.text:ti_sysbios_BIOS_rtsUnlock__I)
                  c3052448    00000028     app_pe9.oe9 (.text:ti_sysbios_family_arm_da830_Hwi_Module__startupDone__F)
                  c3052470    00000028     sysbios.ae9 : BIOS.obj (.text:ti_sysbios_family_arm_da830_Hwi_handlerALL__I)
                  c3052498    00000028                 : BIOS.obj (.text:ti_sysbios_gates_GateMutex_leave__E)
                  c30524c0    00000028     app_pe9.oe9 (.text:ti_sysbios_knl_Queue_Object__destruct__S)
                  c30524e8    00000028     app_pe9.oe9 (.text:ti_sysbios_timers_timer64_Timer_Module__startupDone__F)
                  c3052510    00000028     sysbios.ae9 : BIOS.obj (.text:ti_sysbios_timers_timer64_TimestampProvider_startTimer__E)
                  c3052538    00000028     ti.targets.arm.rtsarm.ae9 : System.oe9 (.text:xdc_runtime_System_abort__E)
                  c3052560    00000028     app_pe9.oe9 (.text:xdc_runtime_System_aprintf__E)
                  c3052588    00000028     app_pe9.oe9 (.text:xdc_runtime_System_printf__E)
                  c30525b0    00000024     rtsv5_A_le_eabi.lib : _lock.obj (.text)
                  c30525d4    00000024                         : ll_lsr32.obj (.text)
                  c30525f8    00000024     ti.uia.loggers.ae9 : LoggerStopMode.oe9 (.text:ti_uia_loggers_LoggerStopMode_disable__E)
                  c305261c    00000024                        : LoggerStopMode.oe9 (.text:ti_uia_loggers_LoggerStopMode_enable__E)
                  c3052640    00000024     ti.targets.arm.rtsarm.ae9 : System.oe9 (.text:xdc_runtime_System_exit__E)
                  c3052664    00000020     rtsv5_A_le_eabi.lib : args_main.obj (.text)
                  c3052684    00000020                         : strlen.obj (.text)
                  c30526a4    00000020     app_pe9.oe9 (.text:ti_sysbios_BIOS_exitFunc__I)
                  c30526c4    00000020     sysbios.ae9 : BIOS.obj (.text:ti_sysbios_family_arm_da830_Hwi_switchFromBootStack__E)
                  c30526e4    00000020     ti.targets.arm.rtsarm.ae9 : LoggerBuf.oe9 (.text:xdc_runtime_LoggerBuf_Instance_finalize__E)
                  c3052704    00000020                               : LoggerBuf.oe9 (.text:xdc_runtime_LoggerBuf_write2__E)
                  c3052724    0000001c     sysbios.ae9 : arm_TaskSupport_asm.obj (.text:_ti_sysbios_family_arm_TaskSupport_glue)
                  c3052740    0000001c                 : arm9_Cache_asm.obj (.text:_ti_sysbios_family_arm_arm9_Cache_disableL1d__I)
                  c305275c    0000001c                 : arm9_Cache_asm.obj (.text:_ti_sysbios_family_arm_arm9_Cache_getEnabled__E)
                  c3052778    0000001c     rtsv5_A_le_eabi.lib : strcpy.obj (.text)
                  c3052794    0000001c     app_pe9.oe9 (.text:ti_sysbios_heaps_HeapMem_Object__get__S)
                  c30527b0    0000001c     app_pe9.oe9 (.text:ti_sysbios_knl_Mailbox_Object__get__S)
                  c30527cc    0000001c     app_pe9.oe9 (.text:ti_sysbios_knl_Swi_Object__get__S)
                  c30527e8    0000001c     ti.uia.loggers.ae9 : LoggerStopMode.oe9 (.text:ti_uia_loggers_LoggerStopMode_isEmpty__E)
                  c3052804    0000001c     app_pe9.oe9 (.text:xdc_runtime_LoggerBuf_Object__get__S)
                  c3052820    0000001c     ti.targets.arm.rtsarm.ae9 : LoggerBuf.oe9 (.text:xdc_runtime_LoggerBuf_write0__E)
                  c305283c    0000001c                               : LoggerBuf.oe9 (.text:xdc_runtime_LoggerBuf_write1__E)
                  c3052858    0000001c     app_pe9.oe9 (.text:xdc_runtime_Startup_exec__I)
                  c3052874    0000001c     ti.targets.arm.rtsarm.ae9 : SysMin.oe9 (.text:xdc_runtime_SysMin_ready__E)
                  c3052890    0000001c                               : System.oe9 (.text:xdc_runtime_System_vsnprintf__E)
                  c30528ac    0000001c                               : Text.oe9 (.text:xdc_runtime_Text_ropeText__E)
                  c30528c8    00000018     sysbios.ae9 : arm9_Cache_asm.obj (.text:_ti_sysbios_family_arm_arm9_Cache_disableL1p__I)
                  c30528e0    00000018                 : arm9_Cache_asm.obj (.text:_ti_sysbios_family_arm_arm9_Cache_enableL1p__I)
                  c30528f8    00000018                 : arm9_Mmu_asm.obj (.text:_ti_sysbios_family_arm_arm9_Mmu_disableAsm)
                  c3052910    00000018                 : BIOS.obj (.text:ti_sysbios_BIOS_setThreadType__E)
                  c3052928    00000018                 : BIOS.obj (.text:ti_sysbios_BIOS_start__E)
                  c3052940    00000018                 : BIOS.obj (.text:ti_sysbios_hal_Hwi_Module_startup__E)
                  c3052958    00000018                 : BIOS.obj (.text:ti_sysbios_hal_Timer_Module_startup__E)
                  c3052970    00000018                 : BIOS.obj (.text:ti_sysbios_heaps_HeapTrack_isBlocking__E)
                  c3052988    00000018                 : BIOS.obj (.text:ti_sysbios_knl_Queue_empty__E)
                  c30529a0    00000018                 : BIOS.obj (.text:ti_sysbios_knl_Swi_disable__E)
                  c30529b8    00000018     app_pe9.oe9 (.text:ti_sysbios_knl_Task_Object__get__S)
                  c30529d0    00000018     sysbios.ae9 : BIOS.obj (.text:ti_sysbios_knl_Task_disable__E)
                  c30529e8    00000018                 : BIOS.obj (.text:ti_sysbios_timers_timer64_TimestampProvider_rolloverFunc__E)
                  c3052a00    00000018     app_pe9.oe9 (.text:ti_uia_loggers_LoggerStopMode_Object__get__S)
                  c3052a18    00000018     ti.targets.arm.rtsarm.ae9 : Error.oe9 (.text:xdc_runtime_Error_init__E)
                  c3052a30    00000014     sysbios.ae9 : arm9_Cache_asm.obj (.text:_ti_sysbios_family_arm_arm9_Cache_enableL1d__I)
                  c3052a44    00000014                 : arm9_Mmu_asm.obj (.text:_ti_sysbios_family_arm_arm9_Mmu_isEnabled)
                  c3052a58    00000014     rtsv5_A_le_eabi.lib : copy_decompress_none.obj (.text:decompress:none)
                  c3052a6c    00000014     sysbios.ae9 : BIOS.obj (.text:ti_sysbios_family_arm_TaskSupport_checkStack__E)
                  c3052a80    00000014                 : BIOS.obj (.text:ti_sysbios_gates_GateMutex_Instance_finalize__E)
                  c3052a94    00000014     app_pe9.oe9 (.text:ti_sysbios_knl_Queue_Object__get__S)
                  c3052aa8    00000014     sysbios.ae9 : BIOS.obj (.text:ti_sysbios_knl_Semaphore_Instance_finalize__E)
                  c3052abc    00000014                 : BIOS.obj (.text:ti_sysbios_timers_timer64_TimestampProvider_getFreq__E)
                  c3052ad0    00000014     ti.targets.arm.rtsarm.ae9 : Gate.oe9 (.text:xdc_runtime_Gate_leaveSystem__E)
                  c3052ae4    00000014     app_pe9.oe9 (.text:xdc_runtime_IHeap_alloc)
                  c3052af8    00000014     app_pe9.oe9 (.text:xdc_runtime_IHeap_free)
                  c3052b0c    00000014     app_pe9.oe9 (.text:xdc_runtime_IHeap_getStats)
                  c3052b20    00000014     ti.targets.arm.rtsarm.ae9 : LoggerBuf.oe9 (.text:xdc_runtime_LoggerBuf_disable__E)
                  c3052b34    00000014                               : LoggerBuf.oe9 (.text:xdc_runtime_LoggerBuf_enable__E)
                  c3052b48    00000014                               : Memory.oe9 (.text:xdc_runtime_Memory_calloc__E)
                  c3052b5c    00000014                               : Memory.oe9 (.text:xdc_runtime_Memory_free__E)
                  c3052b70    00000014                               : Memory.oe9 (.text:xdc_runtime_Memory_getStats__E)
                  c3052b84    00000010     sysbios.ae9 : arm_TaskSupport_asm.obj (.text:_ti_sysbios_family_arm_TaskSupport_swap__E)
                  c3052b94    00000010                 : arm9_Cache_asm.obj (.text:_ti_sysbios_family_arm_arm9_Cache_wbInvAll__E)
                  c3052ba4    00000010                 : BIOS.obj (.text:ti_sysbios_family_arm_da830_Hwi_clearInterrupt__E)
                  c3052bb4    00000010                 : BIOS.obj (.text:ti_sysbios_family_arm_da830_Hwi_startup__E)
                  c3052bc4    00000010                 : BIOS.obj (.text:ti_sysbios_family_arm_exc_Exception_Module_startup__E)
                  c3052bd4    00000010                 : BIOS.obj (.text:ti_sysbios_gates_GateHwi_enter__E)
                  c3052be4    00000010     ti.targets.arm.rtsarm.ae9 : Gate.oe9 (.text:xdc_runtime_Gate_enterSystem__E)
                  c3052bf4    00000010                               : Memory.oe9 (.text:xdc_runtime_Memory_getMaxDefaultTypeAlign__E)
                  c3052c04    00000010                               : Startup.oe9 (.text:xdc_runtime_Startup_rtsDone__E)
                  c3052c14    0000000c     sysbios.ae9 : BIOS.obj (.text:ti_sysbios_knl_Idle_loop__E)
                  c3052c20    0000000c                 : BIOS.obj (.text:ti_sysbios_knl_Queue_Instance_init__E)
                  c3052c2c    0000000c     app_pe9.oe9 (.text:xdc_runtime_Text_visitRope__I)
                  c3052c38    00000008     sysbios.ae9 : arm9_Cache_asm.obj (.text:_ti_sysbios_family_arm_arm9_Cache_invL1dAll__E)
                  c3052c40    00000008                 : arm9_Cache_asm.obj (.text:_ti_sysbios_family_arm_arm9_Cache_invL1pAll__E)
                  c3052c48    00000008                 : arm9_Cache_asm.obj (.text:_ti_sysbios_family_arm_arm9_Cache_wait__E)
                  c3052c50    00000008     rtsv5_A_le_eabi.lib : copy_decompress_rle.obj (.text:decompress:rle24)
                  c3052c58    00000008     platform.lib : edma.obj (.text)
                  c3052c60    00000008     app_pe9.oe9 (.text:ti_sysbios_family_arm_TaskSupport_Module__startupDone__S)
                  c3052c68    00000008     sysbios.ae9 : BIOS.obj (.text:ti_sysbios_gates_GateHwi_leave__E)
                  c3052c70    00000008                 : BIOS.obj (.text:ti_sysbios_gates_GateHwi_query__E)
                  c3052c78    00000008                 : BIOS.obj (.text:ti_sysbios_gates_GateMutex_query__E)
                  c3052c80    00000008                 : BIOS.obj (.text:ti_sysbios_heaps_HeapMem_isBlocking__E)
                  c3052c88    00000008                 : BIOS.obj (.text:ti_sysbios_heaps_HeapTrack_getStats__E)
                  c3052c90    00000008                 : BIOS.obj (.text:ti_sysbios_timers_timer64_Timer_getMaxTicks__E)
                  c3052c98    00000008     ti.uia.loggers.ae9 : LoggerStopMode.oe9 (.text:ti_uia_loggers_LoggerStopMode_getContents__E)
                  c3052ca0    00000008     app_pe9.oe9 (.text:ti_uia_loggers_LoggerStopMode_getFilterLevel__E)
                  c3052ca8    00000008     ti.uia.loggers.ae9 : LoggerStopMode.oe9 (.text:ti_uia_loggers_LoggerStopMode_getInstanceId__E)
                  c3052cb0    00000008                        : LoggerStopMode.oe9 (.text:ti_uia_loggers_LoggerStopMode_getMaxLength__E)
                  c3052cb8    00000008                        : LoggerStopMode.oe9 (.text:ti_uia_loggers_LoggerStopMode_getPriority__E)
                  c3052cc0    00000008                        : LoggerStopMode.oe9 (.text:ti_uia_loggers_LoggerStopMode_getTransferType__E)
                  c3052cc8    00000008     ti.targets.arm.rtsarm.ae9 : Error.oe9 (.text:xdc_runtime_Error_getSite__E)
                  c3052cd0    00000008                               : System.oe9 (.text:xdc_runtime_System_Module_startup__E)
                  c3052cd8    00000004     rtsv5_A_le_eabi.lib : i_div0.obj (.text)
                  c3052cdc    00000004     app_pe9.oe9 (.text:ti_sysbios_BIOS_RtsGateProxy_enter__E)
                  c3052ce0    00000004     app_pe9.oe9 (.text:ti_sysbios_BIOS_RtsGateProxy_leave__E)
                  c3052ce4    00000004     sysbios.ae9 : BIOS.obj (.text:ti_sysbios_BIOS_linkedWithIncorrectBootLibrary__E)
                  c3052ce8    00000004     app_pe9.oe9 (.text:ti_sysbios_BIOS_nullFunc__I)
                  c3052cec    00000004     sysbios.ae9 : BIOS.obj (.text:ti_sysbios_family_arm_da830_Hwi_spuriousInt__I)
                  c3052cf0    00000004                 : BIOS.obj (.text:ti_sysbios_gates_GateHwi_Instance_init__E)
                  c3052cf4    00000004     app_pe9.oe9 (.text:ti_sysbios_heaps_HeapMem_Module_GateProxy_enter__E)
                  c3052cf8    00000004     app_pe9.oe9 (.text:ti_sysbios_heaps_HeapMem_Module_GateProxy_leave__E)
                  c3052cfc    00000004     app_pe9.oe9 (.text:ti_sysbios_knl_Clock_TimerProxy_getMaxTicks__E)
                  c3052d00    00000004     app_pe9.oe9 (.text:ti_sysbios_knl_Queue_destruct)
                  c3052d04    00000004     app_pe9.oe9 (.text:ti_sysbios_knl_Semaphore_destruct)
                  c3052d08    00000004     sysbios.ae9 : BIOS.obj (.text:ti_sysbios_knl_Task_startup__E)
                  c3052d0c    00000004     app_pe9.oe9 (.text:ti_uia_loggers_LoggerStopMode_setFilterLevel__E)
                  c3052d10    00000004     ti.uia.loggers.ae9 : LoggerStopMode.oe9 (.text:ti_uia_loggers_LoggerStopMode_setPriority__E)
                  c3052d14    00000004     app_pe9.oe9 (.text:xdc_runtime_LoggerBuf_Module_GateProxy_enter__E)
                  c3052d18    00000004     app_pe9.oe9 (.text:xdc_runtime_LoggerBuf_Module_GateProxy_leave__E)
                  c3052d1c    00000004     app_pe9.oe9 (.text:xdc_runtime_Startup_reset__I)
                  c3052d20    00000004     app_pe9.oe9 (.text:xdc_runtime_System_Module_GateProxy_enter__E)
                  c3052d24    00000004     app_pe9.oe9 (.text:xdc_runtime_System_Module_GateProxy_leave__E)
                  c3052d28    00000004     ti.targets.arm.rtsarm.ae9 : System.oe9 (.text:xdc_runtime_System_aprintf_va__F)
                  c3052d2c    00000004                               : System.oe9 (.text:xdc_runtime_System_printf_va__F)

.data      0    c3052d30    00000aa9     UNINITIALIZED
                  c3052d30    0000022c     app_pe9.oe9 (.data:ti_sysbios_family_arm_da830_Hwi_Module__state__V)
                  c3052f5c    00000100     app_pe9.oe9 (.data:ti_sysbios_knl_Task_Module_State_0_readyQ__A)
                  c305305c    000000a0     app_pe9.oe9 (.data:ti_sysbios_knl_Mailbox_Object__table__V)
                  c30530fc    0000009c     app_pe9.oe9 (.data:ti_uia_loggers_LoggerStopMode_Object__table__V)
                  c3053198    00000098     app_pe9.oe9 (.data:ti_sysbios_knl_Task_Object__table__V)
                  c3053230    00000098     app_pe9.oe9 (.data:ti_sysbios_timers_timer64_Timer_Object__table__V)
                  c30532c8    00000098     app_pe9.oe9 (.data:ti_sysbios_utils_Load_Module__state__V)
                  c3053360    00000080     app_pe9.oe9 (.data:ti_sysbios_knl_Swi_Module_State_0_readyQ__A)
                  c30533e0    00000060     app_pe9.oe9 (.data:ti_sysbios_timers_timer64_Timer_Module_State_0_device__A)
                  c3053440    00000044     app_pe9.oe9 (.data:ti_sysbios_knl_Task_Module__state__V)
                  c3053484    00000040     app_pe9.oe9 (.data:ti_sysbios_knl_Clock_Object__table__V)
                  c30534c4    00000038     app_pe9.oe9 (.data:ti_sysbios_family_arm_da830_Hwi_Object__table__V)
                  c30534fc    00000038     app_pe9.oe9 (.data:ti_sysbios_gates_GateMutex_Object__table__V)
                  c3053534    00000030     app_pe9.oe9 (.data:ti_sysbios_knl_Swi_Object__table__V)
                  c3053564    0000002c     app_pe9.oe9 (.data:ti_sysbios_knl_Clock_Module__state__V)
                  c3053590    00000024     app_pe9.oe9 (.data:ti_sysbios_BIOS_Module__state__V)
                  c30535b4    00000024     app_pe9.oe9 (.data:xdc_runtime_LoggerBuf_Object__table__V)
                  c30535d8    00000020     app_pe9.oe9 (.data:ti_sysbios_heaps_HeapTrack_Object__table__V)
                  c30535f8    00000020     app_pe9.oe9 (.data:ti_sysbios_timers_timer64_Timer_Module_State_0_handles__A)
                  c3053618    00000020     app_pe9.oe9 (.data:ti_sysbios_timers_timer64_Timer_Module_State_0_intFreqs__A)
                  c3053638    00000020     app_pe9.oe9 (.data:xdc_runtime_System_Module_State_0_atexitHandlers__A)
                  c3053658    0000001c     app_pe9.oe9 (.data:ti_sysbios_knl_Swi_Module__state__V)
                  c3053674    00000018     app_pe9.oe9 (.data:ti_sysbios_heaps_HeapMem_Object__table__V)
                  c305368c    00000018     app_pe9.oe9 (.data:ti_sysbios_timers_timer64_Timer_Module_State_0_gctrl__A)
                  c30536a4    00000018     app_pe9.oe9 (.data:ti_sysbios_timers_timer64_Timer_Module__state__V)
                  c30536bc    00000014     app_pe9.oe9 (.data:ti_sysbios_family_arm_exc_Exception_Module__state__V)
                  c30536d0    00000010     app_pe9.oe9 (.data:ti_sysbios_family_arm_HwiCommon_Module__state__V)
                  c30536e0    00000010     app_pe9.oe9 (.data:ti_sysbios_hal_Hwi_Object__table__V)
                  c30536f0    0000000c     rtsv5_A_le_eabi.lib : exit.obj (.data:$O1$$)
                  c30536fc    0000000c     app_pe9.oe9 (.data:ti_sysbios_knl_Task_Module__root__V)
                  c3053708    0000000c     app_pe9.oe9 (.data:ti_uia_runtime_QueueDescriptor_Module__state__V)
                  c3053714    0000000c     app_pe9.oe9 (.data:xdc_runtime_SysMin_Module__state__V)
                  c3053720    00000008     rtsv5_A_le_eabi.lib : _lock.obj (.data:$O1$$)
                  c3053728    00000008     main.obj (.data)
                  c3053730    00000008     ti.uia.runtime.ae9 : QueueDescriptor.oe9 (.data)
                  c3053738    00000008     app_pe9.oe9 (.data:ti_sysbios_gates_GateHwi_Module__root__V)
                  c3053740    00000008     app_pe9.oe9 (.data:ti_sysbios_gates_GateMutex_Module__root__V)
                  c3053748    00000008     app_pe9.oe9 (.data:ti_sysbios_heaps_HeapMem_Module__root__V)
                  c3053750    00000008     app_pe9.oe9 (.data:ti_sysbios_heaps_HeapTrack_Module__root__V)
                  c3053758    00000008     app_pe9.oe9 (.data:ti_sysbios_knl_Queue_Module__root__V)
                  c3053760    00000008     app_pe9.oe9 (.data:ti_sysbios_knl_Queue_Object__table__V)
                  c3053768    00000008     app_pe9.oe9 (.data:ti_sysbios_knl_Semaphore_Module__root__V)
                  c3053770    00000008     app_pe9.oe9 (.data:ti_sysbios_timers_timer64_TimestampProvider_Module__state__V)
                  c3053778    00000008     app_pe9.oe9 (.data:ti_uia_loggers_LoggerStopMode_Module__root__V)
                  c3053780    00000008     app_pe9.oe9 (.data:xdc_runtime_LoggerBuf_Module__root__V)
                  c3053788    00000008     app_pe9.oe9 (.data:xdc_runtime_Registry_Module__state__V)
                  c3053790    00000008     app_pe9.oe9 (.data:xdc_runtime_Startup_Module__state__V)
                  c3053798    00000008     app_pe9.oe9 (.data:xdc_runtime_System_Module__state__V)
                  c30537a0    00000006     app_pe9.oe9 (.data:xdc_runtime_LoggerBuf_Module__state__V)
                  c30537a6    00000002     app_pe9.oe9 (.data:ti_sysbios_family_arm_da830_TimerSupport_Module_State_0_suspSrc__A)
                  c30537a8    00000004     rtsv5_A_le_eabi.lib : stkdepth_vars.obj (.data)
                  c30537ac    00000004     app_pe9.oe9 (.data:ti_sysbios_family_arm_arm9_Mmu_Module__state__V)
                  c30537b0    00000004     app_pe9.oe9 (.data:ti_sysbios_family_arm_da830_TimerSupport_Module__state__V)
                  c30537b4    00000004     app_pe9.oe9 (.data:ti_sysbios_family_arm_exc_Exception_Module_State_0_excContext__A)
                  c30537b8    00000004     app_pe9.oe9 (.data:ti_sysbios_family_arm_exc_Exception_Module_State_0_excStackBuffers__A)
                  c30537bc    00000004     app_pe9.oe9 (.data:ti_sysbios_family_arm_exc_Exception_Module_State_0_excStack__A)
                  c30537c0    00000004     app_pe9.oe9 (.data:ti_sysbios_gates_GateHwi_Object__table__V)
                  c30537c4    00000004     app_pe9.oe9 (.data:ti_sysbios_knl_Task_Module_State_0_idleTask__A)
                  c30537c8    00000004     app_pe9.oe9 (.data:ti_sysbios_utils_Load_Module_State_0_runningTask__A)
                  c30537cc    00000004     app_pe9.oe9 (.data:ti_sysbios_utils_Load_Module_State_0_taskStartTime__A)
                  c30537d0    00000004     app_pe9.oe9 (.data:xdc_runtime_Memory_Module__state__V)
                  c30537d4    00000002     app_pe9.oe9 (.data:ti_sysbios_family_arm_exc_Exception_Module_State_0_excActive__A)
                  c30537d6    00000002     app_pe9.oe9 (.data:xdc_runtime_Error_Module__state__V)
                  c30537d8    00000001     watchdog.obj (.data)

.const     0    c30537dc    000006db     
                  c30537dc    00000060     app_pe9.oe9 (.const:ti_uia_loggers_LoggerStopMode_Module__FXNS__C)
                  c305383c    00000048     app_pe9.oe9 (.const:.string)
                  c3053884    00000040     app_pe9.oe9 (.const:xdc_runtime_Startup_sfxnTab__A)
                  c30538c4    0000003c     app_pe9.oe9 (.const:xdc_runtime_LoggerBuf_Module__FXNS__C)
                  c3053900    00000028     app_pe9.oe9 (.const:ti_sysbios_heaps_HeapMem_Module__FXNS__C)
                  c3053928    00000028     app_pe9.oe9 (.const:ti_sysbios_heaps_HeapTrack_Module__FXNS__C)
                  c3053950    00000028     app_pe9.oe9 (.const:ti_uia_loggers_LoggerStopMode_Object__PARAMS__C)
                  c3053978    00000024     app_pe9.oe9 (.const:ti_sysbios_gates_GateHwi_Module__FXNS__C)
                  c305399c    00000024     app_pe9.oe9 (.const:ti_sysbios_gates_GateMutex_Module__FXNS__C)
                  c30539c0    00000024     app_pe9.oe9 (.const:ti_sysbios_heaps_HeapMem_Object__PARAMS__C)
                  c30539e4    00000024     app_pe9.oe9 (.const:ti_sysbios_knl_Semaphore_Object__PARAMS__C)
                  c3053a08    00000024     app_pe9.oe9 (.const:xdc_runtime_LoggerBuf_Object__PARAMS__C)
                  c3053a2c    00000020     app_pe9.oe9 (.const:ti_sysbios_gates_GateHwi_Object__DESC__C)
                  c3053a4c    00000020     app_pe9.oe9 (.const:ti_sysbios_gates_GateMutex_Object__DESC__C)
                  c3053a6c    00000020     app_pe9.oe9 (.const:ti_sysbios_heaps_HeapMem_Object__DESC__C)
                  c3053a8c    00000020     app_pe9.oe9 (.const:ti_sysbios_heaps_HeapTrack_Object__DESC__C)
                  c3053aac    00000020     app_pe9.oe9 (.const:ti_sysbios_knl_Queue_Object__DESC__C)
                  c3053acc    00000020     app_pe9.oe9 (.const:ti_sysbios_knl_Semaphore_Object__DESC__C)
                  c3053aec    00000020     app_pe9.oe9 (.const:ti_uia_loggers_LoggerStopMode_Object__DESC__C)
                  c3053b0c    00000020     app_pe9.oe9 (.const:xdc_runtime_LoggerBuf_Object__DESC__C)
                  c3053b2c    00000020     app_pe9.oe9 (.const:xdc_runtime_Startup_sfxnRts__A)
                  c3053b4c    0000001c     app_pe9.oe9 (.const:ti_sysbios_heaps_HeapTrack_Object__PARAMS__C)
                  c3053b68    00000018     app_pe9.oe9 (.const:ti_sysbios_gates_GateHwi_Object__PARAMS__C)
                  c3053b80    00000018     app_pe9.oe9 (.const:ti_sysbios_gates_GateMutex_Object__PARAMS__C)
                  c3053b98    00000018     app_pe9.oe9 (.const:ti_sysbios_knl_Queue_Object__PARAMS__C)
                  c3053bb0    00000011     ti.targets.arm.rtsarm.ae9 : System.oe9 (.const:.string)
                  c3053bc1    00000001     app_pe9.oe9 (.const:xdc_runtime_Error_policy__C)
                  c3053bc2    00000002     app_pe9.oe9 (.const:ti_sysbios_family_arm_arm9_Cache_enableCache__C)
                  c3053bc4    0000000c     app_pe9.oe9 (.const:xdc_runtime_Startup_firstFxns__A)
                  c3053bd0    00000008     app_pe9.oe9 (.const:ti_sysbios_knl_Idle_funcList__A)
                  c3053bd8    00000008     app_pe9.oe9 (.const:ti_sysbios_knl_Idle_funcList__C)
                  c3053be0    00000008     app_pe9.oe9 (.const:xdc_runtime_Startup_firstFxns__C)
                  c3053be8    00000008     app_pe9.oe9 (.const:xdc_runtime_Startup_lastFxns__C)
                  c3053bf0    00000004     app_pe9.oe9 (.const:ti_sysbios_family_arm_da830_Hwi_A_unsupportedMaskingOption__C)
                  c3053bf4    00000004     app_pe9.oe9 (.const:ti_sysbios_family_arm_da830_Hwi_E_alreadyDefined__C)
                  c3053bf8    00000004     app_pe9.oe9 (.const:ti_sysbios_family_arm_da830_Hwi_LD_end__C)
                  c3053bfc    00000004     app_pe9.oe9 (.const:ti_sysbios_family_arm_da830_Hwi_LM_begin__C)
                  c3053c00    00000004     app_pe9.oe9 (.const:ti_sysbios_family_arm_da830_Hwi_Module__diagsEnabled__C)
                  c3053c04    00000004     app_pe9.oe9 (.const:ti_sysbios_family_arm_da830_Hwi_Module__diagsIncluded__C)
                  c3053c08    00000004     app_pe9.oe9 (.const:ti_sysbios_family_arm_da830_Hwi_Module__diagsMask__C)
                  c3053c0c    00000004     app_pe9.oe9 (.const:ti_sysbios_family_arm_da830_Hwi_Module__loggerFxn1__C)
                  c3053c10    00000004     app_pe9.oe9 (.const:ti_sysbios_family_arm_da830_Hwi_Module__loggerFxn4__C)
                  c3053c14    00000004     app_pe9.oe9 (.const:ti_sysbios_family_arm_da830_Hwi_Module__loggerFxn8__C)
                  c3053c18    00000004     app_pe9.oe9 (.const:ti_sysbios_family_arm_da830_Hwi_Module__loggerObj__C)
                  c3053c1c    00000004     app_pe9.oe9 (.const:ti_sysbios_family_arm_da830_Hwi_taskDisable__C)
                  c3053c20    00000004     app_pe9.oe9 (.const:ti_sysbios_family_arm_da830_Hwi_taskRestoreHwi__C)
                  c3053c24    00000004     app_pe9.oe9 (.const:ti_sysbios_family_arm_exc_Exception_E_dataAbort__C)
                  c3053c28    00000004     app_pe9.oe9 (.const:ti_sysbios_family_arm_exc_Exception_E_prefetchAbort__C)
                  c3053c2c    00000004     app_pe9.oe9 (.const:ti_sysbios_family_arm_exc_Exception_E_swi__C)
                  c3053c30    00000004     app_pe9.oe9 (.const:ti_sysbios_family_arm_exc_Exception_E_undefinedInstruction__C)
                  c3053c34    00000004     app_pe9.oe9 (.const:ti_sysbios_family_arm_exc_Exception_excHookFuncs__A)
                  c3053c38    00000004     app_pe9.oe9 (.const:ti_sysbios_family_arm_exc_Exception_excHookFuncs__C)
                  c3053c3c    00000004     app_pe9.oe9 (.const:ti_sysbios_gates_GateMutex_A_badContext__C)
                  c3053c40    00000004     app_pe9.oe9 (.const:ti_sysbios_gates_GateMutex_Instance_State_sem__O)
                  c3053c44    00000004     app_pe9.oe9 (.const:ti_sysbios_gates_GateMutex_Module__diagsEnabled__C)
                  c3053c48    00000004     app_pe9.oe9 (.const:ti_sysbios_gates_GateMutex_Module__diagsIncluded__C)
                  c3053c4c    00000004     app_pe9.oe9 (.const:ti_sysbios_gates_GateMutex_Module__diagsMask__C)
                  c3053c50    00000004     app_pe9.oe9 (.const:ti_sysbios_hal_Hwi_E_stackOverflow__C)
                  c3053c54    00000004     app_pe9.oe9 (.const:ti_sysbios_heaps_HeapMem_A_align__C)
                  c3053c58    00000004     app_pe9.oe9 (.const:ti_sysbios_heaps_HeapMem_A_heapSize__C)
                  c3053c5c    00000004     app_pe9.oe9 (.const:ti_sysbios_heaps_HeapMem_A_invalidFree__C)
                  c3053c60    00000004     app_pe9.oe9 (.const:ti_sysbios_heaps_HeapMem_A_zeroBlock__C)
                  c3053c64    00000004     app_pe9.oe9 (.const:ti_sysbios_heaps_HeapMem_E_memory__C)
                  c3053c68    00000004     app_pe9.oe9 (.const:ti_sysbios_heaps_HeapMem_Module__diagsEnabled__C)
                  c3053c6c    00000004     app_pe9.oe9 (.const:ti_sysbios_heaps_HeapMem_Module__diagsIncluded__C)
                  c3053c70    00000004     app_pe9.oe9 (.const:ti_sysbios_heaps_HeapMem_Module__diagsMask__C)
                  c3053c74    00000004     app_pe9.oe9 (.const:ti_sysbios_heaps_HeapMem_Module__gateObj__C)
                  c3053c78    00000004     app_pe9.oe9 (.const:ti_sysbios_heaps_HeapMem_Object__count__C)
                  c3053c7c    00000004     app_pe9.oe9 (.const:ti_sysbios_heaps_HeapMem_reqAlign__C)
                  c3053c80    00000004     app_pe9.oe9 (.const:ti_sysbios_heaps_HeapTrack_A_bufOverflow__C)
                  c3053c84    00000004     app_pe9.oe9 (.const:ti_sysbios_heaps_HeapTrack_A_doubleFree__C)
                  c3053c88    00000004     app_pe9.oe9 (.const:ti_sysbios_heaps_HeapTrack_A_notEmpty__C)
                  c3053c8c    00000004     app_pe9.oe9 (.const:ti_sysbios_heaps_HeapTrack_Instance_State_trackQueue__O)
                  c3053c90    00000004     app_pe9.oe9 (.const:ti_sysbios_heaps_HeapTrack_Module__diagsEnabled__C)
                  c3053c94    00000004     app_pe9.oe9 (.const:ti_sysbios_heaps_HeapTrack_Module__diagsIncluded__C)
                  c3053c98    00000004     app_pe9.oe9 (.const:ti_sysbios_heaps_HeapTrack_Module__diagsMask__C)
                  c3053c9c    00000004     app_pe9.oe9 (.const:ti_sysbios_knl_Clock_LM_begin__C)
                  c3053ca0    00000004     app_pe9.oe9 (.const:ti_sysbios_knl_Clock_LM_tick__C)
                  c3053ca4    00000004     app_pe9.oe9 (.const:ti_sysbios_knl_Clock_LW_delayed__C)
                  c3053ca8    00000004     app_pe9.oe9 (.const:ti_sysbios_knl_Clock_Module_State_clockQ__O)
                  c3053cac    00000004     app_pe9.oe9 (.const:ti_sysbios_knl_Clock_Module__diagsEnabled__C)
                  c3053cb0    00000004     app_pe9.oe9 (.const:ti_sysbios_knl_Clock_Module__diagsIncluded__C)
                  c3053cb4    00000004     app_pe9.oe9 (.const:ti_sysbios_knl_Clock_Module__diagsMask__C)
                  c3053cb8    00000004     app_pe9.oe9 (.const:ti_sysbios_knl_Clock_Module__loggerFxn1__C)
                  c3053cbc    00000004     app_pe9.oe9 (.const:ti_sysbios_knl_Clock_Module__loggerFxn2__C)
                  c3053cc0    00000004     app_pe9.oe9 (.const:ti_sysbios_knl_Clock_Module__loggerObj__C)
                  c3053cc4    00000004     app_pe9.oe9 (.const:ti_sysbios_knl_Mailbox_Instance_State_freeQue__O)
                  c3053cc8    00000004     app_pe9.oe9 (.const:ti_sysbios_knl_Mailbox_Object__count__C)
                  c3053ccc    00000004     app_pe9.oe9 (.const:ti_sysbios_knl_Mailbox_maxTypeAlign__C)
                  c3053cd0    00000004     app_pe9.oe9 (.const:ti_sysbios_knl_Semaphore_A_badContext__C)
                  c3053cd4    00000004     app_pe9.oe9 (.const:ti_sysbios_knl_Semaphore_A_noEvents__C)
                  c3053cd8    00000004     app_pe9.oe9 (.const:ti_sysbios_knl_Semaphore_A_overflow__C)
                  c3053cdc    00000004     app_pe9.oe9 (.const:ti_sysbios_knl_Semaphore_A_pendTaskDisabled__C)
                  c3053ce0    00000004     app_pe9.oe9 (.const:ti_sysbios_knl_Semaphore_Instance_State_pendQ__O)
                  c3053ce4    00000004     app_pe9.oe9 (.const:ti_sysbios_knl_Semaphore_LM_pend__C)
                  c3053ce8    00000004     app_pe9.oe9 (.const:ti_sysbios_knl_Semaphore_LM_post__C)
                  c3053cec    00000004     app_pe9.oe9 (.const:ti_sysbios_knl_Semaphore_Module__diagsEnabled__C)
                  c3053cf0    00000004     app_pe9.oe9 (.const:ti_sysbios_knl_Semaphore_Module__diagsIncluded__C)
                  c3053cf4    00000004     app_pe9.oe9 (.const:ti_sysbios_knl_Semaphore_Module__diagsMask__C)
                  c3053cf8    00000004     app_pe9.oe9 (.const:ti_sysbios_knl_Semaphore_Module__loggerFxn2__C)
                  c3053cfc    00000004     app_pe9.oe9 (.const:ti_sysbios_knl_Semaphore_Module__loggerFxn4__C)
                  c3053d00    00000004     app_pe9.oe9 (.const:ti_sysbios_knl_Semaphore_Module__loggerObj__C)
                  c3053d04    00000004     app_pe9.oe9 (.const:ti_sysbios_knl_Swi_LD_end__C)
                  c3053d08    00000004     app_pe9.oe9 (.const:ti_sysbios_knl_Swi_LM_begin__C)
                  c3053d0c    00000004     app_pe9.oe9 (.const:ti_sysbios_knl_Swi_LM_post__C)
                  c3053d10    00000004     app_pe9.oe9 (.const:ti_sysbios_knl_Swi_Module__diagsEnabled__C)
                  c3053d14    00000004     app_pe9.oe9 (.const:ti_sysbios_knl_Swi_Module__diagsIncluded__C)
                  c3053d18    00000004     app_pe9.oe9 (.const:ti_sysbios_knl_Swi_Module__diagsMask__C)
                  c3053d1c    00000004     app_pe9.oe9 (.const:ti_sysbios_knl_Swi_Module__loggerFxn1__C)
                  c3053d20    00000004     app_pe9.oe9 (.const:ti_sysbios_knl_Swi_Module__loggerFxn4__C)
                  c3053d24    00000004     app_pe9.oe9 (.const:ti_sysbios_knl_Swi_Module__loggerObj__C)
                  c3053d28    00000004     app_pe9.oe9 (.const:ti_sysbios_knl_Swi_Object__count__C)
                  c3053d2c    00000004     app_pe9.oe9 (.const:ti_sysbios_knl_Task_E_spOutOfBounds__C)
                  c3053d30    00000004     app_pe9.oe9 (.const:ti_sysbios_knl_Task_E_stackOverflow__C)
                  c3053d34    00000004     app_pe9.oe9 (.const:ti_sysbios_knl_Task_LD_block__C)
                  c3053d38    00000004     app_pe9.oe9 (.const:ti_sysbios_knl_Task_LD_exit__C)
                  c3053d3c    00000004     app_pe9.oe9 (.const:ti_sysbios_knl_Task_LD_ready__C)
                  c3053d40    00000004     app_pe9.oe9 (.const:ti_sysbios_knl_Task_LM_switch__C)
                  c3053d44    00000004     app_pe9.oe9 (.const:ti_sysbios_knl_Task_Module_State_inactiveQ__O)
                  c3053d48    00000004     app_pe9.oe9 (.const:ti_sysbios_knl_Task_Module__diagsEnabled__C)
                  c3053d4c    00000004     app_pe9.oe9 (.const:ti_sysbios_knl_Task_Module__diagsIncluded__C)
                  c3053d50    00000004     app_pe9.oe9 (.const:ti_sysbios_knl_Task_Module__diagsMask__C)
                  c3053d54    00000004     app_pe9.oe9 (.const:ti_sysbios_knl_Task_Module__loggerFxn2__C)
                  c3053d58    00000004     app_pe9.oe9 (.const:ti_sysbios_knl_Task_Module__loggerFxn4__C)
                  c3053d5c    00000004     app_pe9.oe9 (.const:ti_sysbios_knl_Task_Module__loggerObj__C)
                  c3053d60    00000004     app_pe9.oe9 (.const:ti_sysbios_knl_Task_Object__count__C)
                  c3053d64    00000004     app_pe9.oe9 (.const:ti_sysbios_knl_Task_allBlockedFunc__C)
                  c3053d68    00000004     app_pe9.oe9 (.const:ti_sysbios_knl_Task_numConstructedTasks__C)
                  c3053d6c    00000004     app_pe9.oe9 (.const:ti_sysbios_timers_timer64_Timer_E_cannotSupport__C)
                  c3053d70    00000004     app_pe9.oe9 (.const:ti_sysbios_timers_timer64_Timer_Module__diagsEnabled__C)
                  c3053d74    00000004     app_pe9.oe9 (.const:ti_sysbios_timers_timer64_Timer_Module__diagsIncluded__C)
                  c3053d78    00000004     app_pe9.oe9 (.const:ti_sysbios_timers_timer64_Timer_Module__diagsMask__C)
                  c3053d7c    00000004     app_pe9.oe9 (.const:ti_sysbios_timers_timer64_Timer_freqDivisor__C)
                  c3053d80    00000004     app_pe9.oe9 (.const:ti_sysbios_timers_timer64_Timer_numTimerDevices__C)
                  c3053d84    00000004     app_pe9.oe9 (.const:ti_sysbios_timers_timer64_TimestampProvider_Module__diagsEnabled__C)
                  c3053d88    00000004     app_pe9.oe9 (.const:ti_sysbios_timers_timer64_TimestampProvider_Module__diagsIncluded__C)
                  c3053d8c    00000004     app_pe9.oe9 (.const:ti_sysbios_timers_timer64_TimestampProvider_Module__diagsMask__C)
                  c3053d90    00000004     app_pe9.oe9 (.const:ti_sysbios_utils_Load_LS_cpuLoad__C)
                  c3053d94    00000004     app_pe9.oe9 (.const:ti_sysbios_utils_Load_Module__diagsEnabled__C)
                  c3053d98    00000004     app_pe9.oe9 (.const:ti_sysbios_utils_Load_Module__diagsIncluded__C)
                  c3053d9c    00000004     app_pe9.oe9 (.const:ti_sysbios_utils_Load_Module__diagsMask__C)
                  c3053da0    00000004     app_pe9.oe9 (.const:ti_sysbios_utils_Load_Module__loggerFxn1__C)
                  c3053da4    00000004     app_pe9.oe9 (.const:ti_sysbios_utils_Load_Module__loggerObj__C)
                  c3053da8    00000004     app_pe9.oe9 (.const:ti_sysbios_utils_Load_postUpdate__C)
                  c3053dac    00000004     app_pe9.oe9 (.const:ti_sysbios_utils_Load_windowInMs__C)
                  c3053db0    00000004     app_pe9.oe9 (.const:ti_uia_loggers_LoggerStopMode_Module__diagsEnabled__C)
                  c3053db4    00000004     app_pe9.oe9 (.const:ti_uia_loggers_LoggerStopMode_Module__diagsIncluded__C)
                  c3053db8    00000004     app_pe9.oe9 (.const:ti_uia_loggers_LoggerStopMode_Module__diagsMask__C)
                  c3053dbc    00000004     app_pe9.oe9 (.const:ti_uia_loggers_LoggerStopMode_Object__count__C)
                  c3053dc0    00000004     app_pe9.oe9 (.const:ti_uia_runtime_ILoggerSnapshot_Interface__BASE__C)
                  c3053dc4    00000004     app_pe9.oe9 (.const:ti_uia_runtime_IUIATransfer_Interface__BASE__C)
                  c3053dc8    00000004     app_pe9.oe9 (.const:xdc_runtime_Assert_E_assertFailed__C)
                  c3053dcc    00000004     app_pe9.oe9 (.const:xdc_runtime_Core_A_initializedParams__C)
                  c3053dd0    00000004     app_pe9.oe9 (.const:xdc_runtime_Core_Module__diagsEnabled__C)
                  c3053dd4    00000004     app_pe9.oe9 (.const:xdc_runtime_Core_Module__diagsIncluded__C)
                  c3053dd8    00000004     app_pe9.oe9 (.const:xdc_runtime_Core_Module__diagsMask__C)
                  c3053ddc    00000004     app_pe9.oe9 (.const:xdc_runtime_Error_E_memory__C)
                  c3053de0    00000004     app_pe9.oe9 (.const:xdc_runtime_Error_Module__diagsEnabled__C)
                  c3053de4    00000004     app_pe9.oe9 (.const:xdc_runtime_Error_Module__diagsIncluded__C)
                  c3053de8    00000004     app_pe9.oe9 (.const:xdc_runtime_Error_Module__diagsMask__C)
                  c3053dec    00000004     app_pe9.oe9 (.const:xdc_runtime_Error_Module__loggerFxn8__C)
                  c3053df0    00000004     app_pe9.oe9 (.const:xdc_runtime_Error_Module__loggerObj__C)
                  c3053df4    00000004     app_pe9.oe9 (.const:xdc_runtime_Error_policyFxn__C)
                  c3053df8    00000004     app_pe9.oe9 (.const:xdc_runtime_Error_raiseHook__C)
                  c3053dfc    00000004     app_pe9.oe9 (.const:xdc_runtime_IFilterLogger_Interface__BASE__C)
                  c3053e00    00000004     app_pe9.oe9 (.const:xdc_runtime_IGateProvider_Interface__BASE__C)
                  c3053e04    00000004     app_pe9.oe9 (.const:xdc_runtime_IHeap_Interface__BASE__C)
                  c3053e08    00000004     app_pe9.oe9 (.const:xdc_runtime_ILogger_Interface__BASE__C)
                  c3053e0c    00000004     app_pe9.oe9 (.const:xdc_runtime_IModule_Interface__BASE__C)
                  c3053e10    00000004     app_pe9.oe9 (.const:xdc_runtime_Log_L_error__C)
                  c3053e14    00000004     app_pe9.oe9 (.const:xdc_runtime_LoggerBuf_E_badLevel__C)
                  c3053e18    00000004     app_pe9.oe9 (.const:xdc_runtime_LoggerBuf_Module__gateObj__C)
                  c3053e1c    00000004     app_pe9.oe9 (.const:xdc_runtime_LoggerBuf_Object__count__C)
                  c3053e20    00000004     app_pe9.oe9 (.const:xdc_runtime_LoggerBuf_statusLogger__C)
                  c3053e24    00000004     app_pe9.oe9 (.const:xdc_runtime_Memory_defaultHeapInstance__C)
                  c3053e28    00000004     app_pe9.oe9 (.const:xdc_runtime_Startup_execImpl__C)
                  c3053e2c    00000004     app_pe9.oe9 (.const:xdc_runtime_Startup_lastFxns__A)
                  c3053e30    00000004     app_pe9.oe9 (.const:xdc_runtime_Startup_maxPasses__C)
                  c3053e34    00000004     app_pe9.oe9 (.const:xdc_runtime_Startup_sfxnRts__C)
                  c3053e38    00000004     app_pe9.oe9 (.const:xdc_runtime_Startup_sfxnTab__C)
                  c3053e3c    00000004     app_pe9.oe9 (.const:xdc_runtime_SysMin_bufSize__C)
                  c3053e40    00000004     app_pe9.oe9 (.const:xdc_runtime_SysMin_outputFunc__C)
                  c3053e44    00000004     app_pe9.oe9 (.const:xdc_runtime_System_Module__gateObj__C)
                  c3053e48    00000004     app_pe9.oe9 (.const:xdc_runtime_System_abortFxn__C)
                  c3053e4c    00000004     app_pe9.oe9 (.const:xdc_runtime_System_exitFxn__C)
                  c3053e50    00000004     app_pe9.oe9 (.const:xdc_runtime_System_extendFxn__C)
                  c3053e54    00000004     app_pe9.oe9 (.const:xdc_runtime_System_maxAtexitHandlers__C)
                  c3053e58    00000004     app_pe9.oe9 (.const:xdc_runtime_Text_charTab__C)
                  c3053e5c    00000004     app_pe9.oe9 (.const:xdc_runtime_Text_nameEmpty__C)
                  c3053e60    00000004     app_pe9.oe9 (.const:xdc_runtime_Text_nameStatic__C)
                  c3053e64    00000004     app_pe9.oe9 (.const:xdc_runtime_Text_nameUnknown__C)
                  c3053e68    00000004     app_pe9.oe9 (.const:xdc_runtime_Text_visitRopeFxn__C)
                  c3053e6c    00000002     app_pe9.oe9 (.const:ti_sysbios_family_arm_arm9_Mmu_enableMMU__C)
                  c3053e6e    00000002     app_pe9.oe9 (.const:ti_sysbios_family_arm_da830_Hwi_Module__id__C)
                  c3053e70    00000002     app_pe9.oe9 (.const:ti_sysbios_family_arm_da830_Hwi_Module__loggerDefined__C)
                  c3053e72    00000002     app_pe9.oe9 (.const:ti_sysbios_family_arm_exc_Exception_Module__id__C)
                  c3053e74    00000002     app_pe9.oe9 (.const:ti_sysbios_gates_GateMutex_Module__id__C)
                  c3053e76    00000002     app_pe9.oe9 (.const:ti_sysbios_hal_Hwi_Module__id__C)
                  c3053e78    00000002     app_pe9.oe9 (.const:ti_sysbios_heaps_HeapMem_Module__id__C)
                  c3053e7a    00000002     app_pe9.oe9 (.const:ti_sysbios_heaps_HeapTrack_Module__id__C)
                  c3053e7c    00000002     app_pe9.oe9 (.const:ti_sysbios_knl_Clock_Module__id__C)
                  c3053e7e    00000002     app_pe9.oe9 (.const:ti_sysbios_knl_Clock_Module__loggerDefined__C)
                  c3053e80    00000002     app_pe9.oe9 (.const:ti_sysbios_knl_Semaphore_Module__id__C)
                  c3053e82    00000002     app_pe9.oe9 (.const:ti_sysbios_knl_Semaphore_Module__loggerDefined__C)
                  c3053e84    00000002     app_pe9.oe9 (.const:ti_sysbios_knl_Swi_Module__id__C)
                  c3053e86    00000002     app_pe9.oe9 (.const:ti_sysbios_knl_Swi_Module__loggerDefined__C)
                  c3053e88    00000002     app_pe9.oe9 (.const:ti_sysbios_knl_Task_Module__id__C)
                  c3053e8a    00000002     app_pe9.oe9 (.const:ti_sysbios_knl_Task_Module__loggerDefined__C)
                  c3053e8c    00000002     app_pe9.oe9 (.const:ti_sysbios_timers_timer64_Timer_Module__id__C)
                  c3053e8e    00000002     app_pe9.oe9 (.const:ti_sysbios_timers_timer64_Timer_startupNeeded__C)
                  c3053e90    00000002     app_pe9.oe9 (.const:ti_sysbios_timers_timer64_Timer_useTimer64pRegMap__C)
                  c3053e92    00000002     app_pe9.oe9 (.const:ti_sysbios_timers_timer64_TimestampProvider_Module__id__C)
                  c3053e94    00000002     app_pe9.oe9 (.const:ti_sysbios_timers_timer64_TimestampProvider_useClockTimer__C)
                  c3053e96    00000002     app_pe9.oe9 (.const:ti_sysbios_utils_Load_Module__id__C)
                  c3053e98    00000002     app_pe9.oe9 (.const:ti_sysbios_utils_Load_Module__loggerDefined__C)
                  c3053e9a    00000002     app_pe9.oe9 (.const:ti_sysbios_utils_Load_updateInIdle__C)
                  c3053e9c    00000002     app_pe9.oe9 (.const:ti_uia_loggers_LoggerStopMode_Module__id__C)
                  c3053e9e    00000002     app_pe9.oe9 (.const:ti_uia_loggers_LoggerStopMode_isTimestampEnabled__C)
                  c3053ea0    00000002     app_pe9.oe9 (.const:xdc_runtime_Core_Module__id__C)
                  c3053ea2    00000002     app_pe9.oe9 (.const:xdc_runtime_Error_Module__loggerDefined__C)
                  c3053ea4    00000002     app_pe9.oe9 (.const:xdc_runtime_Error_maxDepth__C)
                  c3053ea6    00000002     app_pe9.oe9 (.const:xdc_runtime_LoggerBuf_Module__id__C)
                  c3053ea8    00000002     app_pe9.oe9 (.const:xdc_runtime_LoggerBuf_filterByLevel__C)
                  c3053eaa    00000002     app_pe9.oe9 (.const:xdc_runtime_Memory_Module__id__C)
                  c3053eac    00000002     app_pe9.oe9 (.const:xdc_runtime_SysMin_flushAtExit__C)
                  c3053eae    00000002     app_pe9.oe9 (.const:xdc_runtime_Text_charCnt__C)
                  c3053eb0    00000002     app_pe9.oe9 (.const:xdc_runtime_Text_isLoaded__C)
                  c3053eb2    00000002     app_pe9.oe9 (.const:xdc_runtime_Text_registryModsLastId__C)
                  c3053eb4    00000002     app_pe9.oe9 (.const:xdc_runtime_Text_unnamedModsLastId__C)
                  c3053eb6    00000001     app_pe9.oe9 (.const:xdc_runtime_Text_charTab__A)

.vecs      0    ffff0000    00000040     
                  ffff0000    00000040     app_pe9.oe9 (.vecs)

.vectorTable 
*          0    ffff0040    00000328     
                  ffff0040    00000328     app_pe9.oe9 (.vectorTable)

xdc.meta   0    c3000000    000000df     COPY SECTION
                  c3000000    000000df     app_pe9.oe9 (xdc.meta)

MODULE SUMMARY

       Module                     code    ro data   rw data
       ------                     ----    -------   -------
    .\
       main.obj                   324     0         32     
    +--+--------------------------+-------+---------+---------+
       Total:                     324     0         32     
                                                           
    .\BSP\
       board.obj                  3980    0         0      
       connector.obj              1820    0         0      
    +--+--------------------------+-------+---------+---------+
       Total:                     5800    0         0      
                                                           
    .\BSP\Drivers\ADC\
       adc.obj                    64      0         0      
    +--+--------------------------+-------+---------+---------+
       Total:                     64      0         0      
                                                           
    .\BSP\Drivers\ADC\AD7265\
       ad7265.obj                 1280    0         0      
    +--+--------------------------+-------+---------+---------+
       Total:                     1280    0         0      
                                                           
    .\BSP\Drivers\ADC\MCP3021\
       mcp3021.obj                372     0         12     
    +--+--------------------------+-------+---------+---------+
       Total:                     372     0         12     
                                                           
    .\BSP\Drivers\COMMON\I2C\
       I2C.obj                    1064    0         0      
    +--+--------------------------+-------+---------+---------+
       Total:                     1064    0         0      
                                                           
    .\BSP\Drivers\COMMON\PWM\
       pwm.obj                    1420    0         0      
    +--+--------------------------+-------+---------+---------+
       Total:                     1420    0         0      
                                                           
    .\BSP\Drivers\COMMON\SPI\
       spi.obj                    1804    0         0      
    +--+--------------------------+-------+---------+---------+
       Total:                     1804    0         0      
                                                           
    .\BSP\Drivers\DIPSWITCH\
       dipswitch.obj              668     0         4      
    +--+--------------------------+-------+---------+---------+
       Total:                     668     0         4      
                                                           
    .\BSP\Drivers\LACOS\
       laco.obj                   2276    0         12     
    +--+--------------------------+-------+---------+---------+
       Total:                     2276    0         12     
                                                           
    .\BSP\Drivers\LED\
       led.obj                    908     0         0      
    +--+--------------------------+-------+---------+---------+
       Total:                     908     0         0      
                                                           
    .\BSP\Drivers\TDC\
       tdc.obj                    6044    0         0      
    +--+--------------------------+-------+---------+---------+
       Total:                     6044    0         0      
                                                           
    .\BSP\Drivers\UART\
       uart.obj                   1420    0         0      
    +--+--------------------------+-------+---------+---------+
       Total:                     1420    0         0      
                                                           
    .\BSP\Drivers\WATCHDOG\
       watchdog.obj               348     0         1      
    +--+--------------------------+-------+---------+---------+
       Total:                     348     0         1      
                                                           
    C:\Users\dong.x\workspace_v6_2\Test\Debug\configPkg\package\cfg\
       app_pe9.oe9                6444    1802      276600 
    +--+--------------------------+-------+---------+---------+
       Total:                     6444    1802      276600 
                                                           
    C:/ti/OMAPL138_StarterWare_1_10_04_01/binary/armv5/cgt_ccs/omapl138/drivers/Debug/drivers.lib
       edma.obj                   6476    0         4      
       ehrpwm.obj                 3580    0         0      
       gpio.obj                   1724    0         0      
       spi.obj                    1540    0         0      
       uart.obj                   1512    0         0      
       i2c.obj                    1372    0         0      
       psc.obj                    340     0         0      
    +--+--------------------------+-------+---------+---------+
       Total:                     16544   0         4      
                                                           
    C:/ti/OMAPL138_StarterWare_1_10_04_01/binary/armv5/cgt_ccs/omapl138/lcdkOMAPL138/platform/Debug/platform.lib
       edma.obj                   8       0         0      
    +--+--------------------------+-------+---------+---------+
       Total:                     8       0         0      
                                                           
    C:\Users\dong.x\workspace_v6_2\Test\src\sysbios\sysbios.ae9
       BIOS.obj                   19924   0         0      
       exc_Exception_asm.obj      312     0         0      
       da830_Hwi_asm.obj          288     0         0      
       arm9_Cache_asm.obj         164     0         0      
       arm_TaskSupport_asm.obj    128     0         0      
       arm_HwiCommon_asm.obj      124     0         0      
       arm9_Mmu_asm.obj           96      0         0      
    +--+--------------------------+-------+---------+---------+
       Total:                     21036   0         0      
                                                           
    C:\ti\bios_6_46_05_55\packages\ti\targets\arm\rtsarm\lib\auto_init.ae9
       auto_init.oe9              236     0         0      
    +--+--------------------------+-------+---------+---------+
       Total:                     236     0         0      
                                                           
    C:\ti\bios_6_46_05_55\packages\ti\targets\arm\rtsarm\lib\boot.ae9
       boot.oe9                   92      0         0      
    +--+--------------------------+-------+---------+---------+
       Total:                     92      0         0      
                                                           
    C:\ti\bios_6_46_05_55\packages\ti\targets\arm\rtsarm\lib\ti.targets.arm.rtsarm.ae9
       System.oe9                 1980    17        0      
       LoggerBuf.oe9              1744    0         0      
       Text.oe9                   902     0         0      
       Error.oe9                  800     0         0      
       Core-mem.oe9               568     0         0      
       Startup.oe9                496     0         0      
       SysMin.oe9                 416     0         0      
       Core-smem.oe9              320     0         0      
       Memory.oe9                 300     0         0      
       Assert.oe9                 124     0         0      
       Core-params.oe9            100     0         0      
       Core-label.oe9             84      0         0      
       Registry.oe9               48      0         0      
       Gate.oe9                   36      0         0      
    +--+--------------------------+-------+---------+---------+
       Total:                     7918    17        0      
                                                           
    C:\ti\ccs620\ccsv6\tools\compiler\arm_15.12.3.LTS\lib\rtsv5_A_le_eabi.lib
       trgdrv.obj                 1360    0         8      
       ull_div32.obj              696     0         0      
       trgmsg.obj                 168     0         288    
       fd_div32.obj               400     0         0      
       memcpy32.obj               384     0         0      
       fd_mul32.obj               296     0         0      
       i_div32.obj                276     0         0      
       u_div32.obj                240     0         0      
       memset32.obj               176     0         0      
       copy_decompress_rle.obj    168     0         0      
       exit.obj                   144     0         12     
       cpy_tbl.obj                136     0         0      
       fd_tou32.obj               92      0         0      
       u_tofd32.obj               52      0         0      
       _lock.obj                  36      0         8      
       ll_lsr32.obj               36      0         0      
       args_main.obj              32      0         0      
       strlen.obj                 32      0         0      
       strcpy.obj                 28      0         0      
       copy_decompress_none.obj   20      0         0      
       i_div0.obj                 4       0         0      
       stkdepth_vars.obj          0       0         4      
    +--+--------------------------+-------+---------+---------+
       Total:                     4776    0         320    
                                                           
    C:\ti\uia_2_00_06_52\packages\ti\uia\loggers\lib\release\ti.uia.loggers.ae9
       LoggerStopMode.oe9         916     0         0      
    +--+--------------------------+-------+---------+---------+
       Total:                     916     0         0      
                                                           
    C:\ti\uia_2_00_06_52\packages\ti\uia\runtime\lib\release\ti.uia.runtime.ae9
       QueueDescriptor.oe9        196     0         8      
    +--+--------------------------+-------+---------+---------+
       Total:                     196     0         8      
                                                           
       Stack:                     0       0         2048   
       Linker Generated:          0       1596      0      
    +--+--------------------------+-------+---------+---------+
       Grand Total:               81958   3415      279041 


LINKER GENERATED COPY TABLES

__TI_cinit_table @ c3058e30 records: 2, size/record: 8, table size: 16
	.data: load addr=c3058800, load size=00000617 bytes, run addr=c3052d30, run size=00000aa9 bytes, compression=rle
	.bss: load addr=c3058e18, load size=0000000d bytes, run addr=c3000000, run size=0003f030 bytes, compression=rle


LINKER GENERATED HANDLER TABLE

__TI_handler_table @ c3058e28 records: 2, size/record: 4, table size: 8
	index: 0, handler: __TI_decompress_rle24
	index: 1, handler: __TI_decompress_none


GLOBAL SYMBOLS: SORTED ALPHABETICALLY BY Name 

address   name                                                                 
-------   ----                                                                 
c3042118  BoardInit                                                            
c30502f8  C$$EXIT                                                              
c304fd28  C$$IO$$                                                              
c3044784  ConnectorInit                                                        
c3048698  DrvAd7265GetResult                                                   
c3048358  DrvAd7265Init                                                        
c304882c  DrvAd7265Link                                                        
c30486e4  DrvAd7265NextChannel                                                 
c304881c  DrvAd7265NotSupported                                                
c30485bc  DrvAd7265Start                                                       
c3051b38  DrvAdcChInit                                                         
c304a0c4  DrvDsInit                                                            
c304a22c  DrvDsRead                                                            
c304a1d4  DrvDsUpdate                                                          
c3048d14  DrvI2cInit                                                           
c3048ea8  DrvI2cRead                                                           
c3048fa0  DrvI2cWrite                                                          
c3043ea0  DrvLacoInit                                                          
c3044468  DrvLacoLink                                                          
c30442ec  DrvLacoNext                                                          
c304434c  DrvLacoSetCap                                                        
c3044488  DrvLacoStart                                                         
c304913c  DrvLedsInit                                                          
c304945c  DrvLedsSet                                                           
c304948c  DrvLedsUnset                                                         
c3049394  DrvLedsUpdate                                                        
c304c700  DrvMcp3021GetResult                                                  
c304c5f0  DrvMcp3021Init                                                       
c304c740  DrvMcp3021Link                                                       
c304c730  DrvMcp3021NotSupported                                               
c304c6d8  DrvMcp3021Start                                                      
c3046854  DrvPwmInit                                                           
c3046b1c  DrvPwmSetDelay                                                       
c3046bec  DrvPwmSetFreq                                                        
c3046a84  DrvPwmSetPulseWidth                                                  
c3046c8c  DrvPwmStart                                                          
c3046cbc  DrvPwmStop                                                           
c30450a8  DrvSpiCsHold                                                         
c3044ea0  DrvSpiInit                                                           
c304513c  DrvSpiRead                                                           
c3045174  DrvSpiReadDma                                                        
c304505c  DrvSpiSetCs                                                          
c3045018  DrvSpiWrite                                                          
c3045128  DrvSpiWriteDma                                                       
c3041214  DrvTdcDisable                                                        
c3041c38  DrvTdcDmaAutoStart                                                   
c30411e8  DrvTdcEnable                                                         
c3041240  DrvTdcGetResult                                                      
c304097c  DrvTdcInit                                                           
c304202c  DrvTdcNextChannel                                                    
c3042000  DrvTdcSetComm                                                        
c3041270  DrvTdcStart                                                          
c304703c  DrvUartDisable                                                       
c3047064  DrvUartHandleInit                                                    
c3046fbc  DrvUartHasChar                                                       
c3046de0  DrvUartInit                                                          
c3046ffc  DrvUartIsTxRdy                                                       
c3046ebc  DrvUartReadChar                                                      
c3046ed8  DrvUartReadCharBlock                                                 
c3046f74  DrvUartWriteChar                                                     
c3046ef8  DrvUartWriteCharBlock                                                
c3046f1c  DrvUartWriteStr                                                      
c304d090  DrvWatchDogFeed                                                      
c304d0fc  DrvWatchDogGiveFood                                                  
c304cfd0  DrvWatchDogInit                                                      
c303f3c4  EDMA3ChannelToParamMap                                               
c30402f8  EDMA3ClearErrorBits                                                  
c303f758  EDMA3ClrCCErr                                                        
c303f7f8  EDMA3ClrEvt                                                          
c303fbf4  EDMA3ClrIntr                                                         
c303f658  EDMA3ClrMissEvt                                                      
c3040784  EDMA3ContextRestore                                                  
c30405b8  EDMA3ContextSave                                                     
c3040490  EDMA3Deinit                                                          
c303f304  EDMA3DisableChInShadowReg                                            
c303f8f8  EDMA3DisableDmaEvt                                                   
c303fb74  EDMA3DisableEvtIntr                                                  
c303f9ac  EDMA3DisableQdmaEvt                                                  
c3040228  EDMA3DisableTransfer                                                 
c303f244  EDMA3EnableChInShadowReg                                             
c303f878  EDMA3EnableDmaEvt                                                    
c303faf4  EDMA3EnableEvtIntr                                                   
c303f974  EDMA3EnableQdmaEvt                                                   
c3040158  EDMA3EnableTransfer                                                  
c303faa4  EDMA3ErrIntrHighStatusGet                                            
c3040094  EDMA3FreeChannel                                                     
c303f9e4  EDMA3GetCCErrStatus                                                  
c303fa7c  EDMA3GetErrIntrStatus                                                
c303fa0c  EDMA3GetIntrStatus                                                   
c303fc64  EDMA3GetPaRAM                                                        
c303f030  EDMA3Init                                                            
c303fa44  EDMA3IntrStatusHighGet                                               
c303f3f4  EDMA3MapChToEvtQ                                                     
c303f540  EDMA3MapQdmaChToPaRAM                                                
c303f22c  EDMA3PeripheralIdGet                                                 
c303f704  EDMA3QdmaClrMissEvt                                                  
c303facc  EDMA3QdmaGetErrIntrStatus                                            
c303fce8  EDMA3QdmaGetPaRAM                                                    
c303fefc  EDMA3QdmaGetPaRAMEntry                                               
c303fe14  EDMA3QdmaSetPaRAM                                                    
c303fea8  EDMA3QdmaSetPaRAMEntry                                               
c303ff5c  EDMA3RequestChannel                                                  
c303f778  EDMA3SetEvt                                                          
c303fd7c  EDMA3SetPaRAM                                                        
c303f61c  EDMA3SetQdmaTrigWord                                                 
c303f4b4  EDMA3UnmapChToEvtQ                                                   
c3052c58  EDMAVersionGet                                                       
c3043678  EHRPWMAQContSWForceOnA                                               
c30436d4  EHRPWMAQContSWForceOnB                                               
c3043930  EHRPWMChopperDisable                                                 
c304390c  EHRPWMChopperEnable                                                  
c3043e24  EHRPWMClockDisable                                                   
c3043e74  EHRPWMClockDisableStatusGet                                          
c3043e00  EHRPWMClockEnable                                                    
c3043e48  EHRPWMClockEnableStatusGet                                           
c3043d70  EHRPWMConfigHR                                                       
c30434f4  EHRPWMConfigureAQActionOnA                                           
c3043590  EHRPWMConfigureAQActionOnB                                           
c3043850  EHRPWMConfigureChopperDuty                                           
c3043888  EHRPWMConfigureChopperFreq                                           
c30438d4  EHRPWMConfigureChopperOSPW                                           
c3043814  EHRPWMDBConfigureFED                                                 
c30437d8  EHRPWMDBConfigureRED                                                 
c30437a4  EHRPWMDBOutput                                                       
c304376c  EHRPWMDBPolaritySelect                                               
c3043734  EHRPWMDBSourceSelect                                                 
c3043c4c  EHRPWMETEventCount                                                   
c3043c88  EHRPWMETIntClear                                                     
c3043b9c  EHRPWMETIntDisable                                                   
c3043bc0  EHRPWMETIntEnable                                                    
c3043c18  EHRPWMETIntPrescale                                                  
c3043cac  EHRPWMETIntSWForce                                                   
c3043be4  EHRPWMETIntSourceSelect                                              
c3043c6c  EHRPWMETIntStatus                                                    
c3043ddc  EHRPWMHRDisable                                                      
c30433b8  EHRPWMLoadCMPA                                                       
c3043d08  EHRPWMLoadCMPAHR                                                     
c3043454  EHRPWMLoadCMPB                                                       
c3043cd0  EHRPWMLoadTBPHSHR                                                    
c304318c  EHRPWMPWMOpFreqSet                                                   
c304334c  EHRPWMReadTBCount                                                    
c3043630  EHRPWMSWForceA                                                       
c3043654  EHRPWMSWForceB                                                       
c30432fc  EHRPWMSyncOutModeSet                                                 
c3043388  EHRPWMTBClearStatus                                                  
c3043230  EHRPWMTBEmulationModeSet                                             
c3043364  EHRPWMTBStatusGet                                                    
c3043b34  EHRPWMTZFlagClear                                                    
c3043b10  EHRPWMTZFlagGet                                                      
c30439fc  EHRPWMTZForceAOnTrip                                                 
c3043a30  EHRPWMTZForceBOnTrip                                                 
c3043abc  EHRPWMTZIntDisable                                                   
c3043a68  EHRPWMTZIntEnable                                                    
c3043b58  EHRPWMTZSWFrcEvent                                                   
c30439a8  EHRPWMTZTripEventDisable                                             
c3043954  EHRPWMTZTripEventEnable                                              
c30430a4  EHRPWMTimebaseClkConfig                                              
c30432bc  EHRPWMTimebaseSyncDisable                                            
c3043264  EHRPWMTimebaseSyncEnable                                             
c30432dc  EHRPWMTriggerSWSync                                                  
c304332c  EHRPWMWriteTBCount                                                   
c3045b78  GPIOBankIntDisable                                                   
c3045b48  GPIOBankIntEnable                                                    
c3045ba8  GPIOBankPinsWrite                                                    
c304565c  GPIODirModeGet                                                       
c30455ac  GPIODirModeSet                                                       
c30459ac  GPIOIntTypeGet                                                       
c3045808  GPIOIntTypeSet                                                       
c3045ae0  GPIOPinIntClear                                                      
c3045a60  GPIOPinIntStatus                                                     
c3045788  GPIOPinRead                                                          
c30456dc  GPIOPinWrite                                                         
c3047dac  HOSTclock                                                            
c3047d3c  HOSTclose                                                            
c3047cd4  HOSTgetenv                                                           
c3047c34  HOSTlseek                                                            
c3047ba8  HOSTopen                                                             
c3047b24  HOSTread                                                             
c3047a8c  HOSTrename                                                           
c3047a2c  HOSTtime                                                             
c30479b0  HOSTtime64                                                           
c304794c  HOSTunlink                                                           
c30478c8  HOSTwrite                                                            
c30478a0  I2CDMARxEventDisable                                                 
c3047858  I2CDMARxEventEnable                                                  
c304787c  I2CDMATxEventDisable                                                 
c3047834  I2CDMATxEventEnable                                                  
c3047818  I2CDMATxRxEventDisable                                               
c30477dc  I2CInterruptVectorGet                                                
c3047624  I2CMasterBusBusy                                                     
c304765c  I2CMasterControl                                                     
c3047740  I2CMasterDataGet                                                     
c3047720  I2CMasterDataPut                                                     
c3047484  I2CMasterDisable                                                     
c304744c  I2CMasterEnable                                                      
c30476f8  I2CMasterErr                                                         
c304736c  I2CMasterInitExpClk                                                  
c30475c4  I2CMasterIntClearEx                                                  
c3047500  I2CMasterIntDisableEx                                                
c30474a8  I2CMasterIntEnableEx                                                 
c3047558  I2CMasterIntStatus                                                   
c3047640  I2CMasterIsBusy                                                      
c3047604  I2CMasterSlaveAddrSet                                                
c3047690  I2CMasterStart                                                       
c30476b4  I2CMasterStop                                                        
c30477c0  I2COwnAddressSet                                                     
c30477a0  I2CSetDataCount                                                      
c30477f8  I2CSlaveAddressGet                                                   
c3047780  I2CSlaveDataGet                                                      
c3047760  I2CSlaveDataPut                                                      
c30475e4  I2CSlaveIntClearEx                                                   
c304752c  I2CSlaveIntDisableEx                                                 
c30474d4  I2CSlaveIntEnableEx                                                  
c3047578  I2CSlaveIntStatus                                                    
c3047598  I2CSlaveIntStatusEx                                                  
c30476d8  I2CStatusClear                                                       
c304d710  IsrAdc                                                               
c304d67c  IsrClock                                                             
c3051d90  LoggerBuf_instanceStartup                                            
c304c668  Mcp3021Read                                                          
c304d284  PSCModuleControl                                                     
UNDEFED   SHT$$INIT_ARRAY$$Base                                                
UNDEFED   SHT$$INIT_ARRAY$$Limit                                               
c3045ee4  SPICSTimerDisable                                                    
c3045f14  SPICSTimerEnable                                                     
c3045f44  SPICharLengthSet                                                     
c3045c68  SPIClkConfigure                                                      
c3045f98  SPIConfigClkFormat                                                   
c3045e54  SPIDat1Config                                                        
c3046228  SPIDataReceive                                                       
c3045e34  SPIDefaultCSSet                                                      
c3045d9c  SPIDelayConfigure                                                    
c3045cb8  SPIEnable                                                            
c30461b0  SPIIntDisable                                                        
c3046184  SPIIntEnable                                                         
c3046158  SPIIntLevelSet                                                       
c30461fc  SPIIntStatus                                                         
c30461dc  SPIIntStatusClear                                                    
c3046248  SPIInterruptVectorGet                                                
c3045d14  SPIModeConfigure                                                     
c3045cf8  SPIOutOfReset                                                        
c3046090  SPIParityDisable                                                     
c3046030  SPIParityEnable                                                      
c3045d40  SPIPinControl                                                        
c3045cdc  SPIReset                                                             
c3046000  SPIShiftLsbFirst                                                     
c3045fd0  SPIShiftMsbFirst                                                     
c3045eb0  SPITransmitData1                                                     
c3046128  SPIWaitDisable                                                       
c30460f8  SPIWaitEnable                                                        
c30460c0  SPIWdelaySet                                                         
c304d77c  TaskFunc                                                             
c3041cb8  TdcInt                                                               
c3046754  UARTBreakCtl                                                         
c3046638  UARTCharGet                                                          
c3046600  UARTCharGetNonBlocking                                               
c3046670  UARTCharPut                                                          
c30465bc  UARTCharPutNonBlocking                                               
c304656c  UARTCharsAvail                                                       
c3046330  UARTConfigGetExpClk                                                  
c304626c  UARTConfigSetExpClk                                                  
c304642c  UARTDMADisable                                                       
c3046408  UARTDMAEnable                                                        
c30464d8  UARTDisable                                                          
c30464bc  UARTEnable                                                           
c304651c  UARTFIFODisable                                                      
c3046500  UARTFIFOEnable                                                       
c30463e0  UARTFIFOLevelSet                                                     
c30466e4  UARTIntDisable                                                       
c30466b4  UARTIntEnable                                                        
c3046714  UARTIntStatus                                                        
c30467e4  UARTModemControlClear                                                
c3046814  UARTModemControlGet                                                  
c30467a0  UARTModemControlSet                                                  
c3046830  UARTModemStatusGet                                                   
c3046494  UARTParityModeGet                                                    
c3046450  UARTParityModeSet                                                    
c30465a0  UARTRxErrorGet                                                       
c3046538  UARTSpaceAvail                                                       
c304d04c  WatchDogUpdatePassword                                               
c3000000  __ASM__                                                              
c303ebc0  __CIOBUF_                                                            
c3000056  __ISA__                                                              
c3000068  __PLAT__                                                             
c3058800  __STACK_END                                                          
00000800  __STACK_SIZE                                                         
c3000090  __TARG__                                                             
c3058e30  __TI_CINIT_Base                                                      
c3058e40  __TI_CINIT_Limit                                                     
c3058e28  __TI_Handler_Table_Base                                              
c3058e30  __TI_Handler_Table_Limit                                             
c304f028  __TI_auto_init                                                       
c30536f0  __TI_cleanup_ptr                                                     
c3052a58  __TI_decompress_none                                                 
c3052c50  __TI_decompress_rle24                                                
c30536f4  __TI_dtors_ptr                                                       
c30536f8  __TI_enable_exit_profile_output                                      
ffffffff  __TI_pprof_out_hndl                                                  
ffffffff  __TI_prof_data_size                                                  
ffffffff  __TI_prof_data_start                                                 
c304fd30  __TI_readmsg                                                         
c3058800  __TI_static_base__                                                   
c304fce0  __TI_writemsg                                                        
c30000b7  __TRDR__                                                             
c3051140  __aeabi_d2uiz                                                        
c304be48  __aeabi_ddiv                                                         
c304e1ac  __aeabi_dmul                                                         
c304e754  __aeabi_idiv                                                         
c3052cd8  __aeabi_idiv0                                                        
c304e754  __aeabi_idivmod                                                      
c30525d4  __aeabi_llsr                                                         
c304fa20  __aeabi_memclr                                                       
c304fa20  __aeabi_memclr4                                                      
c304fa20  __aeabi_memclr8                                                      
c304c470  __aeabi_memcpy                                                       
c304c470  __aeabi_memcpy4                                                      
c304c470  __aeabi_memcpy8                                                      
c304fa24  __aeabi_memset                                                       
c304fa24  __aeabi_memset4                                                      
c304fa24  __aeabi_memset8                                                      
c3051dfc  __aeabi_ui2d                                                         
c304ee48  __aeabi_uidiv                                                        
c304ee48  __aeabi_uidivmod                                                     
c3049e0c  __aeabi_uldivmod                                                     
ffffffff  __binit__                                                            
ffffffff  __c_args__                                                           
c3058000  __stack                                                              
c3052664  _args_main                                                           
00000000  _argsize                                                             
c30510e4  _c_int00                                                             
c3053720  _lock                                                                
c30525c8  _nop                                                                 
c30525bc  _register_lock                                                       
c30525b0  _register_unlock                                                     
c3053724  _unlock                                                              
c3050300  abort                                                                
ffffffff  binit                                                                
c303e048  board                                                                
c3053728  cnt                                                                  
c305372c  cnt2                                                                 
c3050530  copy_in                                                              
c305030c  exit                                                                 
c30523f8  free                                                                 
c303e04c  hc165_pins                                                           
c304d780  main                                                                 
c30537a8  main_func_sp                                                         
c3051254  malloc                                                               
c304c470  memcpy                                                               
c304fa30  memset                                                               
c303e044  regionId                                                             
c3052778  strcpy                                                               
c3052684  strlen                                                               
c3053590  ti_sysbios_BIOS_Module__state__V                                     
c30522c4  ti_sysbios_BIOS_RtsGateProxy_Handle__label__S                        
c3051ecc  ti_sysbios_BIOS_RtsGateProxy_Object__delete__S                       
c3052cdc  ti_sysbios_BIOS_RtsGateProxy_enter__E                                
c3052ce0  ti_sysbios_BIOS_RtsGateProxy_leave__E                                
c3052c78  ti_sysbios_BIOS_RtsGateProxy_query__E                                
c305195c  ti_sysbios_BIOS_atExitFunc__I                                        
c30521e8  ti_sysbios_BIOS_errorRaiseHook__I                                    
c30526a4  ti_sysbios_BIOS_exitFunc__I                                          
c3052ce4  ti_sysbios_BIOS_linkedWithIncorrectBootLibrary__E                    
c3052ce8  ti_sysbios_BIOS_nullFunc__I                                          
c3051e30  ti_sysbios_BIOS_registerRTSLock__I                                   
c3051e64  ti_sysbios_BIOS_removeRTSLock__I                                     
c3052038  ti_sysbios_BIOS_rtsLock__I                                           
c3052420  ti_sysbios_BIOS_rtsUnlock__I                                         
c3052910  ti_sysbios_BIOS_setThreadType__E                                     
c3051ce8  ti_sysbios_BIOS_startFunc__I                                         
c3052928  ti_sysbios_BIOS_start__E                                             
c30536d0  ti_sysbios_family_arm_HwiCommon_Module__state__V                     
c3052214  ti_sysbios_family_arm_HwiCommon_Module_startup__E                    
c3052c60  ti_sysbios_family_arm_TaskSupport_Module__startupDone__S             
c305140c  ti_sysbios_family_arm_TaskSupport_buildTaskStack                     
c3052a6c  ti_sysbios_family_arm_TaskSupport_checkStack__E                      
c3052724  ti_sysbios_family_arm_TaskSupport_glue                               
c30512ac  ti_sysbios_family_arm_TaskSupport_start__E                           
c3052b84  ti_sysbios_family_arm_TaskSupport_swap__E                            
c3052740  ti_sysbios_family_arm_arm9_Cache_disableL1d__I                       
c30528c8  ti_sysbios_family_arm_arm9_Cache_disableL1p__I                       
c3053bc2  ti_sysbios_family_arm_arm9_Cache_enableCache__C                      
c3052a30  ti_sysbios_family_arm_arm9_Cache_enableL1d__I                        
c30528e0  ti_sysbios_family_arm_arm9_Cache_enableL1p__I                        
c3051e98  ti_sysbios_family_arm_arm9_Cache_enable__E                           
c305275c  ti_sysbios_family_arm_arm9_Cache_getEnabled__E                       
c3052c38  ti_sysbios_family_arm_arm9_Cache_invL1dAll__E                        
c3052c40  ti_sysbios_family_arm_arm9_Cache_invL1pAll__E                        
c305083c  ti_sysbios_family_arm_arm9_Cache_startup__I                          
c3052c48  ti_sysbios_family_arm_arm9_Cache_wait__E                             
c3052b94  ti_sysbios_family_arm_arm9_Cache_wbInvAll__E                         
c3054000  ti_sysbios_family_arm_arm9_Mmu_Module_State_0_tableBuf__A            
c30537ac  ti_sysbios_family_arm_arm9_Mmu_Module__state__V                      
c3051884  ti_sysbios_family_arm_arm9_Mmu_Module_startup__E                     
c30528f8  ti_sysbios_family_arm_arm9_Mmu_disableAsm__I                         
c3050934  ti_sysbios_family_arm_arm9_Mmu_disable__E                            
c3051dc8  ti_sysbios_family_arm_arm9_Mmu_enableAsm__I                          
c3053e6c  ti_sysbios_family_arm_arm9_Mmu_enableMMU__C                          
c30509a8  ti_sysbios_family_arm_arm9_Mmu_enable__E                             
c304ac64  ti_sysbios_family_arm_arm9_Mmu_initTableBuf__I                       
c3052a44  ti_sysbios_family_arm_arm9_Mmu_isEnabled__E                          
ffff0040  ti_sysbios_family_arm_da830_Hwi0                                     
ffff0048  ti_sysbios_family_arm_da830_Hwi1                                     
ffff0090  ti_sysbios_family_arm_da830_Hwi10                                    
ffff0360  ti_sysbios_family_arm_da830_Hwi100                                   
ffff0098  ti_sysbios_family_arm_da830_Hwi11                                    
ffff00a0  ti_sysbios_family_arm_da830_Hwi12                                    
ffff00a8  ti_sysbios_family_arm_da830_Hwi13                                    
ffff00b0  ti_sysbios_family_arm_da830_Hwi14                                    
ffff00b8  ti_sysbios_family_arm_da830_Hwi15                                    
ffff00c0  ti_sysbios_family_arm_da830_Hwi16                                    
ffff00c8  ti_sysbios_family_arm_da830_Hwi17                                    
ffff00d0  ti_sysbios_family_arm_da830_Hwi18                                    
ffff00d8  ti_sysbios_family_arm_da830_Hwi19                                    
ffff0050  ti_sysbios_family_arm_da830_Hwi2                                     
ffff00e0  ti_sysbios_family_arm_da830_Hwi20                                    
ffff00e8  ti_sysbios_family_arm_da830_Hwi21                                    
ffff00f0  ti_sysbios_family_arm_da830_Hwi22                                    
ffff00f8  ti_sysbios_family_arm_da830_Hwi23                                    
ffff0100  ti_sysbios_family_arm_da830_Hwi24                                    
ffff0108  ti_sysbios_family_arm_da830_Hwi25                                    
ffff0110  ti_sysbios_family_arm_da830_Hwi26                                    
ffff0118  ti_sysbios_family_arm_da830_Hwi27                                    
ffff0120  ti_sysbios_family_arm_da830_Hwi28                                    
ffff0128  ti_sysbios_family_arm_da830_Hwi29                                    
ffff0058  ti_sysbios_family_arm_da830_Hwi3                                     
ffff0130  ti_sysbios_family_arm_da830_Hwi30                                    
ffff0138  ti_sysbios_family_arm_da830_Hwi31                                    
ffff0140  ti_sysbios_family_arm_da830_Hwi32                                    
ffff0148  ti_sysbios_family_arm_da830_Hwi33                                    
ffff0150  ti_sysbios_family_arm_da830_Hwi34                                    
ffff0158  ti_sysbios_family_arm_da830_Hwi35                                    
ffff0160  ti_sysbios_family_arm_da830_Hwi36                                    
ffff0168  ti_sysbios_family_arm_da830_Hwi37                                    
ffff0170  ti_sysbios_family_arm_da830_Hwi38                                    
ffff0178  ti_sysbios_family_arm_da830_Hwi39                                    
ffff0060  ti_sysbios_family_arm_da830_Hwi4                                     
ffff0180  ti_sysbios_family_arm_da830_Hwi40                                    
ffff0188  ti_sysbios_family_arm_da830_Hwi41                                    
ffff0190  ti_sysbios_family_arm_da830_Hwi42                                    
ffff0198  ti_sysbios_family_arm_da830_Hwi43                                    
ffff01a0  ti_sysbios_family_arm_da830_Hwi44                                    
ffff01a8  ti_sysbios_family_arm_da830_Hwi45                                    
ffff01b0  ti_sysbios_family_arm_da830_Hwi46                                    
ffff01b8  ti_sysbios_family_arm_da830_Hwi47                                    
ffff01c0  ti_sysbios_family_arm_da830_Hwi48                                    
ffff01c8  ti_sysbios_family_arm_da830_Hwi49                                    
ffff0068  ti_sysbios_family_arm_da830_Hwi5                                     
ffff01d0  ti_sysbios_family_arm_da830_Hwi50                                    
ffff01d8  ti_sysbios_family_arm_da830_Hwi51                                    
ffff01e0  ti_sysbios_family_arm_da830_Hwi52                                    
ffff01e8  ti_sysbios_family_arm_da830_Hwi53                                    
ffff01f0  ti_sysbios_family_arm_da830_Hwi54                                    
ffff01f8  ti_sysbios_family_arm_da830_Hwi55                                    
ffff0200  ti_sysbios_family_arm_da830_Hwi56                                    
ffff0208  ti_sysbios_family_arm_da830_Hwi57                                    
ffff0210  ti_sysbios_family_arm_da830_Hwi58                                    
ffff0218  ti_sysbios_family_arm_da830_Hwi59                                    
ffff0070  ti_sysbios_family_arm_da830_Hwi6                                     
ffff0220  ti_sysbios_family_arm_da830_Hwi60                                    
ffff0228  ti_sysbios_family_arm_da830_Hwi61                                    
ffff0230  ti_sysbios_family_arm_da830_Hwi62                                    
ffff0238  ti_sysbios_family_arm_da830_Hwi63                                    
ffff0240  ti_sysbios_family_arm_da830_Hwi64                                    
ffff0248  ti_sysbios_family_arm_da830_Hwi65                                    
ffff0250  ti_sysbios_family_arm_da830_Hwi66                                    
ffff0258  ti_sysbios_family_arm_da830_Hwi67                                    
ffff0260  ti_sysbios_family_arm_da830_Hwi68                                    
ffff0268  ti_sysbios_family_arm_da830_Hwi69                                    
ffff0078  ti_sysbios_family_arm_da830_Hwi7                                     
ffff0270  ti_sysbios_family_arm_da830_Hwi70                                    
ffff0278  ti_sysbios_family_arm_da830_Hwi71                                    
ffff0280  ti_sysbios_family_arm_da830_Hwi72                                    
ffff0288  ti_sysbios_family_arm_da830_Hwi73                                    
ffff0290  ti_sysbios_family_arm_da830_Hwi74                                    
ffff0298  ti_sysbios_family_arm_da830_Hwi75                                    
ffff02a0  ti_sysbios_family_arm_da830_Hwi76                                    
ffff02a8  ti_sysbios_family_arm_da830_Hwi77                                    
ffff02b0  ti_sysbios_family_arm_da830_Hwi78                                    
ffff02b8  ti_sysbios_family_arm_da830_Hwi79                                    
ffff0080  ti_sysbios_family_arm_da830_Hwi8                                     
ffff02c0  ti_sysbios_family_arm_da830_Hwi80                                    
ffff02c8  ti_sysbios_family_arm_da830_Hwi81                                    
ffff02d0  ti_sysbios_family_arm_da830_Hwi82                                    
ffff02d8  ti_sysbios_family_arm_da830_Hwi83                                    
ffff02e0  ti_sysbios_family_arm_da830_Hwi84                                    
ffff02e8  ti_sysbios_family_arm_da830_Hwi85                                    
ffff02f0  ti_sysbios_family_arm_da830_Hwi86                                    
ffff02f8  ti_sysbios_family_arm_da830_Hwi87                                    
ffff0300  ti_sysbios_family_arm_da830_Hwi88                                    
ffff0308  ti_sysbios_family_arm_da830_Hwi89                                    
ffff0088  ti_sysbios_family_arm_da830_Hwi9                                     
ffff0310  ti_sysbios_family_arm_da830_Hwi90                                    
ffff0318  ti_sysbios_family_arm_da830_Hwi91                                    
ffff0320  ti_sysbios_family_arm_da830_Hwi92                                    
ffff0328  ti_sysbios_family_arm_da830_Hwi93                                    
ffff0330  ti_sysbios_family_arm_da830_Hwi94                                    
ffff0338  ti_sysbios_family_arm_da830_Hwi95                                    
ffff0340  ti_sysbios_family_arm_da830_Hwi96                                    
ffff0348  ti_sysbios_family_arm_da830_Hwi97                                    
ffff0350  ti_sysbios_family_arm_da830_Hwi98                                    
ffff0358  ti_sysbios_family_arm_da830_Hwi99                                    
c3053bf0  ti_sysbios_family_arm_da830_Hwi_A_unsupportedMaskingOption__C        
c3053bf4  ti_sysbios_family_arm_da830_Hwi_E_alreadyDefined__C                  
c304f1f8  ti_sysbios_family_arm_da830_Hwi_Instance_init__E                     
c3053bf8  ti_sysbios_family_arm_da830_Hwi_LD_end__C                            
c3053bfc  ti_sysbios_family_arm_da830_Hwi_LM_begin__C                          
c303dc10  ti_sysbios_family_arm_da830_Hwi_Module_State_0_fiqStack__A           
c3053c00  ti_sysbios_family_arm_da830_Hwi_Module__diagsEnabled__C              
c3053c04  ti_sysbios_family_arm_da830_Hwi_Module__diagsIncluded__C             
c3053c08  ti_sysbios_family_arm_da830_Hwi_Module__diagsMask__C                 
c3053e6e  ti_sysbios_family_arm_da830_Hwi_Module__id__C                        
c3053e70  ti_sysbios_family_arm_da830_Hwi_Module__loggerDefined__C             
c3053c0c  ti_sysbios_family_arm_da830_Hwi_Module__loggerFxn1__C                
c3053c10  ti_sysbios_family_arm_da830_Hwi_Module__loggerFxn4__C                
c3053c14  ti_sysbios_family_arm_da830_Hwi_Module__loggerFxn8__C                
c3053c18  ti_sysbios_family_arm_da830_Hwi_Module__loggerObj__C                 
c3052448  ti_sysbios_family_arm_da830_Hwi_Module__startupDone__F               
c3052448  ti_sysbios_family_arm_da830_Hwi_Module__startupDone__S               
c3052d30  ti_sysbios_family_arm_da830_Hwi_Module__state__V                     
c304f2d8  ti_sysbios_family_arm_da830_Hwi_Module_startup__E                    
c30534c4  ti_sysbios_family_arm_da830_Hwi_Object__table__V                     
c3052ba4  ti_sysbios_family_arm_da830_Hwi_clearInterrupt__E                    
fffee000  ti_sysbios_family_arm_da830_Hwi_cpIntc                               
c3052240  ti_sysbios_family_arm_da830_Hwi_disableInterrupt__E                  
c304d7c0  ti_sysbios_family_arm_da830_Hwi_dispatchFIQC__I                      
c304bfd8  ti_sysbios_family_arm_da830_Hwi_dispatchIRQC__I                      
c304f114  ti_sysbios_family_arm_da830_Hwi_dispatchIRQ__I                       
c305226c  ti_sysbios_family_arm_da830_Hwi_enableInterrupt__E                   
c3050d40  ti_sysbios_family_arm_da830_Hwi_getStackInfo__E                      
c3052470  ti_sysbios_family_arm_da830_Hwi_handlerALL__I                        
c3050e18  ti_sysbios_family_arm_da830_Hwi_handlerLOWER__I                      
c3050e80  ti_sysbios_family_arm_da830_Hwi_handlerNONE__I                       
c3050a1c  ti_sysbios_family_arm_da830_Hwi_handlerSELF__I                       
c304fad0  ti_sysbios_family_arm_da830_Hwi_initIntController__I                 
c3051bf8  ti_sysbios_family_arm_da830_Hwi_init__I                              
c304b7a0  ti_sysbios_family_arm_da830_Hwi_reconfig__E                          
c3052cec  ti_sysbios_family_arm_da830_Hwi_spuriousInt__I                       
c3052bb4  ti_sysbios_family_arm_da830_Hwi_startup__E                           
c30526c4  ti_sysbios_family_arm_da830_Hwi_switchFromBootStack__E               
c3053c1c  ti_sysbios_family_arm_da830_Hwi_taskDisable__C                       
c3053c20  ti_sysbios_family_arm_da830_Hwi_taskRestoreHwi__C                    
ffff0040  ti_sysbios_family_arm_da830_Hwi_vectorTable                          
ffff0000  ti_sysbios_family_arm_da830_Hwi_vectors                              
c30537a6  ti_sysbios_family_arm_da830_TimerSupport_Module_State_0_suspSrc__A   
c30537b0  ti_sysbios_family_arm_da830_TimerSupport_Module__state__V            
c3051d20  ti_sysbios_family_arm_da830_TimerSupport_enable__E                   
c3053c24  ti_sysbios_family_arm_exc_Exception_E_dataAbort__C                   
c3053c28  ti_sysbios_family_arm_exc_Exception_E_prefetchAbort__C               
c3053c2c  ti_sysbios_family_arm_exc_Exception_E_swi__C                         
c3053c30  ti_sysbios_family_arm_exc_Exception_E_undefinedInstruction__C        
c30537d4  ti_sysbios_family_arm_exc_Exception_Module_State_0_excActive__A      
c30537b4  ti_sysbios_family_arm_exc_Exception_Module_State_0_excContext__A     
c30537b8  ti_sysbios_family_arm_exc_Exception_Module_State_0_excStackBuffers__A
c303d410  ti_sysbios_family_arm_exc_Exception_Module_State_0_excStack_0__A     
c30537bc  ti_sysbios_family_arm_exc_Exception_Module_State_0_excStack__A       
c3053e72  ti_sysbios_family_arm_exc_Exception_Module__id__C                    
c30536bc  ti_sysbios_family_arm_exc_Exception_Module__state__V                 
c3052bc4  ti_sysbios_family_arm_exc_Exception_Module_startup__E                
c3049b24  ti_sysbios_family_arm_exc_Exception_excDumpContext__I                
c304f648  ti_sysbios_family_arm_exc_Exception_excHandlerAsm__I                 
c304f6b0  ti_sysbios_family_arm_exc_Exception_excHandlerDataAsm__I             
c304a360  ti_sysbios_family_arm_exc_Exception_excHandler__I                    
c3053c34  ti_sysbios_family_arm_exc_Exception_excHookFuncs__A                  
c3053c38  ti_sysbios_family_arm_exc_Exception_excHookFuncs__C                  
c3050ee8  ti_sysbios_family_arm_exc_Exception_initCore0__I                     
c30507f8  ti_sysbios_family_xxx_Hwi_switchAndRunFunc                           
c30507c0  ti_sysbios_family_xxx_Hwi_switchToIsrStack                           
c30507e0  ti_sysbios_family_xxx_Hwi_switchToTaskStack                          
c3052298  ti_sysbios_gates_GateHwi_Handle__label__S                            
c3052cf0  ti_sysbios_gates_GateHwi_Instance_init__E                            
c3053978  ti_sysbios_gates_GateHwi_Module__FXNS__C                             
c3053738  ti_sysbios_gates_GateHwi_Module__root__V                             
c3053a2c  ti_sysbios_gates_GateHwi_Object__DESC__C                             
c3053b68  ti_sysbios_gates_GateHwi_Object__PARAMS__C                           
c3051658  ti_sysbios_gates_GateHwi_Object__create__S                           
c3052068  ti_sysbios_gates_GateHwi_Object__delete__S                           
c30537c0  ti_sysbios_gates_GateHwi_Object__table__V                            
c3052bd4  ti_sysbios_gates_GateHwi_enter__E                                    
c3052c68  ti_sysbios_gates_GateHwi_leave__E                                    
c3052c70  ti_sysbios_gates_GateHwi_query__E                                    
c3053c3c  ti_sysbios_gates_GateMutex_A_badContext__C                           
c30522c4  ti_sysbios_gates_GateMutex_Handle__label__S                          
c3053c40  ti_sysbios_gates_GateMutex_Instance_State_sem__O                     
c3052a80  ti_sysbios_gates_GateMutex_Instance_finalize__E                      
c3052098  ti_sysbios_gates_GateMutex_Instance_init__E                          
c305399c  ti_sysbios_gates_GateMutex_Module__FXNS__C                           
c3053c44  ti_sysbios_gates_GateMutex_Module__diagsEnabled__C                   
c3053c48  ti_sysbios_gates_GateMutex_Module__diagsIncluded__C                  
c3053c4c  ti_sysbios_gates_GateMutex_Module__diagsMask__C                      
c3053e74  ti_sysbios_gates_GateMutex_Module__id__C                             
c3053740  ti_sysbios_gates_GateMutex_Module__root__V                           
c3053a4c  ti_sysbios_gates_GateMutex_Object__DESC__C                           
c3053b80  ti_sysbios_gates_GateMutex_Object__PARAMS__C                         
c30516a8  ti_sysbios_gates_GateMutex_Object__create__S                         
c3051ecc  ti_sysbios_gates_GateMutex_Object__delete__S                         
c30534fc  ti_sysbios_gates_GateMutex_Object__table__V                          
c304e3f8  ti_sysbios_gates_GateMutex_enter__E                                  
c3052498  ti_sysbios_gates_GateMutex_leave__E                                  
c3052c78  ti_sysbios_gates_GateMutex_query__E                                  
c3051e98  ti_sysbios_hal_Cache_CacheProxy_enable__E                            
c3052c48  ti_sysbios_hal_Cache_CacheProxy_wait__E                              
c3052b94  ti_sysbios_hal_Cache_CacheProxy_wbInvAll__E                          
c3053c50  ti_sysbios_hal_Hwi_E_stackOverflow__C                                
c3052448  ti_sysbios_hal_Hwi_HwiProxy_Module__startupDone__S                   
c3052ba4  ti_sysbios_hal_Hwi_HwiProxy_clearInterrupt__E                        
c3052240  ti_sysbios_hal_Hwi_HwiProxy_disableInterrupt__E                      
c305226c  ti_sysbios_hal_Hwi_HwiProxy_enableInterrupt__E                       
c3050d40  ti_sysbios_hal_Hwi_HwiProxy_getStackInfo__E                          
c3052bb4  ti_sysbios_hal_Hwi_HwiProxy_startup__E                               
c30526c4  ti_sysbios_hal_Hwi_HwiProxy_switchFromBootStack__E                   
c3053e76  ti_sysbios_hal_Hwi_Module__id__C                                     
c3052940  ti_sysbios_hal_Hwi_Module_startup__E                                 
c30536e0  ti_sysbios_hal_Hwi_Object__table__V                                  
c3051304  ti_sysbios_hal_Hwi_checkStack                                        
c3051838  ti_sysbios_hal_Hwi_initStack                                         
c3052958  ti_sysbios_hal_Timer_Module_startup__E                               
c30524e8  ti_sysbios_hal_Timer_TimerProxy_Module__startupDone__S               
c3050a90  ti_sysbios_hal_Timer_TimerProxy_startup__E                           
c3053c54  ti_sysbios_heaps_HeapMem_A_align__C                                  
c3053c58  ti_sysbios_heaps_HeapMem_A_heapSize__C                               
c3053c5c  ti_sysbios_heaps_HeapMem_A_invalidFree__C                            
c3053c60  ti_sysbios_heaps_HeapMem_A_zeroBlock__C                              
c3053c64  ti_sysbios_heaps_HeapMem_E_memory__C                                 
c30522f0  ti_sysbios_heaps_HeapMem_Handle__label__S                            
c3000000  ti_sysbios_heaps_HeapMem_Instance_State_0_buf__A                     
c304ae54  ti_sysbios_heaps_HeapMem_Instance_init__E                            
c30522c4  ti_sysbios_heaps_HeapMem_Module_GateProxy_Handle__label__S           
c3051ecc  ti_sysbios_heaps_HeapMem_Module_GateProxy_Object__delete__S          
c3052cf4  ti_sysbios_heaps_HeapMem_Module_GateProxy_enter__E                   
c3052cf8  ti_sysbios_heaps_HeapMem_Module_GateProxy_leave__E                   
c3052c78  ti_sysbios_heaps_HeapMem_Module_GateProxy_query__E                   
c3053900  ti_sysbios_heaps_HeapMem_Module__FXNS__C                             
c3053c68  ti_sysbios_heaps_HeapMem_Module__diagsEnabled__C                     
c3053c6c  ti_sysbios_heaps_HeapMem_Module__diagsIncluded__C                    
c3053c70  ti_sysbios_heaps_HeapMem_Module__diagsMask__C                        
c3053c74  ti_sysbios_heaps_HeapMem_Module__gateObj__C                          
c3053e78  ti_sysbios_heaps_HeapMem_Module__id__C                               
c3053748  ti_sysbios_heaps_HeapMem_Module__root__V                             
c3053a6c  ti_sysbios_heaps_HeapMem_Object__DESC__C                             
c30539c0  ti_sysbios_heaps_HeapMem_Object__PARAMS__C                           
c3053c78  ti_sysbios_heaps_HeapMem_Object__count__C                            
c30516f8  ti_sysbios_heaps_HeapMem_Object__create__S                           
c30520c8  ti_sysbios_heaps_HeapMem_Object__delete__S                           
c3052794  ti_sysbios_heaps_HeapMem_Object__get__S                              
c3053674  ti_sysbios_heaps_HeapMem_Object__table__V                            
c3049830  ti_sysbios_heaps_HeapMem_allocUnprotected__E                         
c3050418  ti_sysbios_heaps_HeapMem_alloc__E                                    
c30494c8  ti_sysbios_heaps_HeapMem_freeUnprotected__E                          
c30519a0  ti_sysbios_heaps_HeapMem_free__E                                     
c30506c0  ti_sysbios_heaps_HeapMem_getStats__E                                 
c3050f50  ti_sysbios_heaps_HeapMem_init__I                                     
c3052c80  ti_sysbios_heaps_HeapMem_isBlocking__E                               
c3053c7c  ti_sysbios_heaps_HeapMem_reqAlign__C                                 
c3053c80  ti_sysbios_heaps_HeapTrack_A_bufOverflow__C                          
c3053c84  ti_sysbios_heaps_HeapTrack_A_doubleFree__C                           
c3053c88  ti_sysbios_heaps_HeapTrack_A_notEmpty__C                             
c305231c  ti_sysbios_heaps_HeapTrack_Handle__label__S                          
c3053c8c  ti_sysbios_heaps_HeapTrack_Instance_State_trackQueue__O              
c304f3b8  ti_sysbios_heaps_HeapTrack_Instance_finalize__E                      
c3051c34  ti_sysbios_heaps_HeapTrack_Instance_init__E                          
c3053928  ti_sysbios_heaps_HeapTrack_Module__FXNS__C                           
c3053c90  ti_sysbios_heaps_HeapTrack_Module__diagsEnabled__C                   
c3053c94  ti_sysbios_heaps_HeapTrack_Module__diagsIncluded__C                  
c3053c98  ti_sysbios_heaps_HeapTrack_Module__diagsMask__C                      
c3053e7a  ti_sysbios_heaps_HeapTrack_Module__id__C                             
c3053750  ti_sysbios_heaps_HeapTrack_Module__root__V                           
c3053a8c  ti_sysbios_heaps_HeapTrack_Object__DESC__C                           
c3053b4c  ti_sysbios_heaps_HeapTrack_Object__PARAMS__C                         
c3051748  ti_sysbios_heaps_HeapTrack_Object__create__S                         
c3051f00  ti_sysbios_heaps_HeapTrack_Object__delete__S                         
c30535d8  ti_sysbios_heaps_HeapTrack_Object__table__V                          
c304ed54  ti_sysbios_heaps_HeapTrack_alloc__E                                  
c304aa6c  ti_sysbios_heaps_HeapTrack_free__E                                   
c3052c88  ti_sysbios_heaps_HeapTrack_getStats__E                               
c3052970  ti_sysbios_heaps_HeapTrack_isBlocking__E                             
c3053c9c  ti_sysbios_knl_Clock_LM_begin__C                                     
c3053ca0  ti_sysbios_knl_Clock_LM_tick__C                                      
c3053ca4  ti_sysbios_knl_Clock_LW_delayed__C                                   
c3053ca8  ti_sysbios_knl_Clock_Module_State_clockQ__O                          
c3053cac  ti_sysbios_knl_Clock_Module__diagsEnabled__C                         
c3053cb0  ti_sysbios_knl_Clock_Module__diagsIncluded__C                        
c3053cb4  ti_sysbios_knl_Clock_Module__diagsMask__C                            
c3053e7c  ti_sysbios_knl_Clock_Module__id__C                                   
c3053e7e  ti_sysbios_knl_Clock_Module__loggerDefined__C                        
c3053cb8  ti_sysbios_knl_Clock_Module__loggerFxn1__C                           
c3053cbc  ti_sysbios_knl_Clock_Module__loggerFxn2__C                           
c3053cc0  ti_sysbios_knl_Clock_Module__loggerObj__C                            
c3053564  ti_sysbios_knl_Clock_Module__state__V                                
c3051d58  ti_sysbios_knl_Clock_Module_startup__E                               
c3053484  ti_sysbios_knl_Clock_Object__table__V                                
c30524e8  ti_sysbios_knl_Clock_TimerProxy_Module__startupDone__S               
c3052cfc  ti_sysbios_knl_Clock_TimerProxy_getMaxTicks__E                       
c3050a90  ti_sysbios_knl_Clock_TimerProxy_startup__E                           
c30519e4  ti_sysbios_knl_Clock_doTick__I                                       
c304fec8  ti_sysbios_knl_Clock_logTick__E                                      
c304b5e8  ti_sysbios_knl_Clock_workFunc__E                                     
c3053bd0  ti_sysbios_knl_Idle_funcList__A                                      
c3053bd8  ti_sysbios_knl_Idle_funcList__C                                      
c3052c14  ti_sysbios_knl_Idle_loop__E                                          
c3051f34  ti_sysbios_knl_Idle_run__E                                           
c303ea80  ti_sysbios_knl_Mailbox_Instance_State_0_allocBuf__A                  
c303ece0  ti_sysbios_knl_Mailbox_Instance_State_1_allocBuf__A                  
c3053cc4  ti_sysbios_knl_Mailbox_Instance_State_freeQue__O                     
c304f574  ti_sysbios_knl_Mailbox_Module_startup__E                             
c3053cc8  ti_sysbios_knl_Mailbox_Object__count__C                              
c30527b0  ti_sysbios_knl_Mailbox_Object__get__S                                
c305305c  ti_sysbios_knl_Mailbox_Object__table__V                              
c3053ccc  ti_sysbios_knl_Mailbox_maxTypeAlign__C                               
c3052c20  ti_sysbios_knl_Queue_Instance_init__E                                
c3053758  ti_sysbios_knl_Queue_Module__root__V                                 
c3053aac  ti_sysbios_knl_Queue_Object__DESC__C                                 
c3053b98  ti_sysbios_knl_Queue_Object__PARAMS__C                               
c30524c0  ti_sysbios_knl_Queue_Object__destruct__S                             
c3052a94  ti_sysbios_knl_Queue_Object__get__S                                  
c3053760  ti_sysbios_knl_Queue_Object__table__V                                
c30518cc  ti_sysbios_knl_Queue_construct                                       
c3052d00  ti_sysbios_knl_Queue_destruct                                        
c3052988  ti_sysbios_knl_Queue_empty__E                                        
c3053cd0  ti_sysbios_knl_Semaphore_A_badContext__C                             
c3053cd4  ti_sysbios_knl_Semaphore_A_noEvents__C                               
c3053cd8  ti_sysbios_knl_Semaphore_A_overflow__C                               
c3053cdc  ti_sysbios_knl_Semaphore_A_pendTaskDisabled__C                       
c3053ce0  ti_sysbios_knl_Semaphore_Instance_State_pendQ__O                     
c3052aa8  ti_sysbios_knl_Semaphore_Instance_finalize__E                        
c304e868  ti_sysbios_knl_Semaphore_Instance_init__E                            
c3053ce4  ti_sysbios_knl_Semaphore_LM_pend__C                                  
c3053ce8  ti_sysbios_knl_Semaphore_LM_post__C                                  
c3053cec  ti_sysbios_knl_Semaphore_Module__diagsEnabled__C                     
c3053cf0  ti_sysbios_knl_Semaphore_Module__diagsIncluded__C                    
c3053cf4  ti_sysbios_knl_Semaphore_Module__diagsMask__C                        
c3053e80  ti_sysbios_knl_Semaphore_Module__id__C                               
c3053e82  ti_sysbios_knl_Semaphore_Module__loggerDefined__C                    
c3053cf8  ti_sysbios_knl_Semaphore_Module__loggerFxn2__C                       
c3053cfc  ti_sysbios_knl_Semaphore_Module__loggerFxn4__C                       
c3053d00  ti_sysbios_knl_Semaphore_Module__loggerObj__C                        
c3053768  ti_sysbios_knl_Semaphore_Module__root__V                             
c3053acc  ti_sysbios_knl_Semaphore_Object__DESC__C                             
c30539e4  ti_sysbios_knl_Semaphore_Object__PARAMS__C                           
c3052348  ti_sysbios_knl_Semaphore_Object__destruct__S                         
c3051798  ti_sysbios_knl_Semaphore_construct                                   
c3052d04  ti_sysbios_knl_Semaphore_destruct                                    
c3051460  ti_sysbios_knl_Semaphore_pendTimeout__I                              
c3048858  ti_sysbios_knl_Semaphore_pend__E                                     
c304b040  ti_sysbios_knl_Semaphore_post__E                                     
c3053d04  ti_sysbios_knl_Swi_LD_end__C                                         
c3053d08  ti_sysbios_knl_Swi_LM_begin__C                                       
c3053d0c  ti_sysbios_knl_Swi_LM_post__C                                        
c3053360  ti_sysbios_knl_Swi_Module_State_0_readyQ__A                          
c3053d10  ti_sysbios_knl_Swi_Module__diagsEnabled__C                           
c3053d14  ti_sysbios_knl_Swi_Module__diagsIncluded__C                          
c3053d18  ti_sysbios_knl_Swi_Module__diagsMask__C                              
c3053e84  ti_sysbios_knl_Swi_Module__id__C                                     
c3053e86  ti_sysbios_knl_Swi_Module__loggerDefined__C                          
c3053d1c  ti_sysbios_knl_Swi_Module__loggerFxn1__C                             
c3053d20  ti_sysbios_knl_Swi_Module__loggerFxn4__C                             
c3053d24  ti_sysbios_knl_Swi_Module__loggerObj__C                              
c3053658  ti_sysbios_knl_Swi_Module__state__V                                  
c3051c70  ti_sysbios_knl_Swi_Module_startup__E                                 
c3053d28  ti_sysbios_knl_Swi_Object__count__C                                  
c30527cc  ti_sysbios_knl_Swi_Object__get__S                                    
c3053534  ti_sysbios_knl_Swi_Object__table__V                                  
c30529a0  ti_sysbios_knl_Swi_disable__E                                        
c304e2d4  ti_sysbios_knl_Swi_post__E                                           
c304f968  ti_sysbios_knl_Swi_restoreHwi__E                                     
c3050740  ti_sysbios_knl_Swi_runLoop__I                                        
c304b954  ti_sysbios_knl_Swi_run__I                                            
c30505b8  ti_sysbios_knl_Swi_schedule__I                                       
c305135c  ti_sysbios_knl_Swi_startup__E                                        
c3053d2c  ti_sysbios_knl_Task_E_spOutOfBounds__C                               
c3053d30  ti_sysbios_knl_Task_E_stackOverflow__C                               
c303c410  ti_sysbios_knl_Task_Instance_State_0_stack__A                        
c303cc10  ti_sysbios_knl_Task_Instance_State_1_stack__A                        
c3053d34  ti_sysbios_knl_Task_LD_block__C                                      
c3053d38  ti_sysbios_knl_Task_LD_exit__C                                       
c3053d3c  ti_sysbios_knl_Task_LD_ready__C                                      
c3053d40  ti_sysbios_knl_Task_LM_switch__C                                     
c30537c4  ti_sysbios_knl_Task_Module_State_0_idleTask__A                       
c3052f5c  ti_sysbios_knl_Task_Module_State_0_readyQ__A                         
c3053d44  ti_sysbios_knl_Task_Module_State_inactiveQ__O                        
c3053d48  ti_sysbios_knl_Task_Module__diagsEnabled__C                          
c3053d4c  ti_sysbios_knl_Task_Module__diagsIncluded__C                         
c3053d50  ti_sysbios_knl_Task_Module__diagsMask__C                             
c3053e88  ti_sysbios_knl_Task_Module__id__C                                    
c3053e8a  ti_sysbios_knl_Task_Module__loggerDefined__C                         
c3053d54  ti_sysbios_knl_Task_Module__loggerFxn2__C                            
c3053d58  ti_sysbios_knl_Task_Module__loggerFxn4__C                            
c3053d5c  ti_sysbios_knl_Task_Module__loggerObj__C                             
c30536fc  ti_sysbios_knl_Task_Module__root__V                                  
c3053440  ti_sysbios_knl_Task_Module__state__V                                 
c304a5dc  ti_sysbios_knl_Task_Module_startup__E                                
c3053d60  ti_sysbios_knl_Task_Object__count__C                                 
c30529b8  ti_sysbios_knl_Task_Object__get__S                                   
c3053198  ti_sysbios_knl_Task_Object__table__V                                 
c3052c60  ti_sysbios_knl_Task_SupportProxy_Module__startupDone__S              
c3052a6c  ti_sysbios_knl_Task_SupportProxy_checkStack__E                       
c30512ac  ti_sysbios_knl_Task_SupportProxy_start__E                            
c3052b84  ti_sysbios_knl_Task_SupportProxy_swap__E                             
c3053d64  ti_sysbios_knl_Task_allBlockedFunc__C                                
c305063c  ti_sysbios_knl_Task_allBlockedFunction__I                            
c304e96c  ti_sysbios_knl_Task_blockI__E                                        
c304d900  ti_sysbios_knl_Task_checkStacks__E                                   
c30529d0  ti_sysbios_knl_Task_disable__E                                       
c3051f68  ti_sysbios_knl_Task_enter__I                                         
c304c8d4  ti_sysbios_knl_Task_exit__E                                          
c3053d68  ti_sysbios_knl_Task_numConstructedTasks__C                           
c3051a28  ti_sysbios_knl_Task_restoreHwi__E                                    
c305119c  ti_sysbios_knl_Task_restore__E                                       
c304dcc0  ti_sysbios_knl_Task_schedule__I                                      
c304ddfc  ti_sysbios_knl_Task_startCore__E                                     
c3052d08  ti_sysbios_knl_Task_startup__E                                       
c304ea68  ti_sysbios_knl_Task_unblockI__E                                      
c3053d6c  ti_sysbios_timers_timer64_Timer_E_cannotSupport__C                   
c30533e0  ti_sysbios_timers_timer64_Timer_Module_State_0_device__A             
c305368c  ti_sysbios_timers_timer64_Timer_Module_State_0_gctrl__A              
c30535f8  ti_sysbios_timers_timer64_Timer_Module_State_0_handles__A            
c3053618  ti_sysbios_timers_timer64_Timer_Module_State_0_intFreqs__A           
c3053d70  ti_sysbios_timers_timer64_Timer_Module__diagsEnabled__C              
c3053d74  ti_sysbios_timers_timer64_Timer_Module__diagsIncluded__C             
c3053d78  ti_sysbios_timers_timer64_Timer_Module__diagsMask__C                 
c3053e8c  ti_sysbios_timers_timer64_Timer_Module__id__C                        
c30524e8  ti_sysbios_timers_timer64_Timer_Module__startupDone__F               
c30524e8  ti_sysbios_timers_timer64_Timer_Module__startupDone__S               
c30536a4  ti_sysbios_timers_timer64_Timer_Module__state__V                     
c3050c60  ti_sysbios_timers_timer64_Timer_Module_startup__E                    
c3053230  ti_sysbios_timers_timer64_Timer_Object__table__V                     
c3051d20  ti_sysbios_timers_timer64_Timer_TimerSupportProxy_enable__E          
c304a834  ti_sysbios_timers_timer64_Timer_deviceConfig__I                      
c3053d7c  ti_sysbios_timers_timer64_Timer_freqDivisor__C                       
c304da40  ti_sysbios_timers_timer64_Timer_getFreq__E                           
c3052c90  ti_sysbios_timers_timer64_Timer_getMaxTicks__E                       
c304f8a8  ti_sysbios_timers_timer64_Timer_initDevice__I                        
c3053d80  ti_sysbios_timers_timer64_Timer_numTimerDevices__C                   
c304ce70  ti_sysbios_timers_timer64_Timer_setPeriodMicroSecs__E                
c304cba8  ti_sysbios_timers_timer64_Timer_start__E                             
c3053e8e  ti_sysbios_timers_timer64_Timer_startupNeeded__C                     
c3050a90  ti_sysbios_timers_timer64_Timer_startup__E                           
c3050388  ti_sysbios_timers_timer64_Timer_stop__E                              
c3053e90  ti_sysbios_timers_timer64_Timer_useTimer64pRegMap__C                 
c3053d84  ti_sysbios_timers_timer64_TimestampProvider_Module__diagsEnabled__C  
c3053d88  ti_sysbios_timers_timer64_TimestampProvider_Module__diagsIncluded__C 
c3053d8c  ti_sysbios_timers_timer64_TimestampProvider_Module__diagsMask__C     
c3053e92  ti_sysbios_timers_timer64_TimestampProvider_Module__id__C            
c3053770  ti_sysbios_timers_timer64_TimestampProvider_Module__state__V         
c304fb80  ti_sysbios_timers_timer64_TimestampProvider_Module_startup__E        
c304cd0c  ti_sysbios_timers_timer64_TimestampProvider_get32__E                 
c304c764  ti_sysbios_timers_timer64_TimestampProvider_get64__E                 
c3052abc  ti_sysbios_timers_timer64_TimestampProvider_getFreq__E               
c30529e8  ti_sysbios_timers_timer64_TimestampProvider_rolloverFunc__E          
c3052510  ti_sysbios_timers_timer64_TimestampProvider_startTimer__E            
c3053e94  ti_sysbios_timers_timer64_TimestampProvider_useClockTimer__C         
c3053d90  ti_sysbios_utils_Load_LS_cpuLoad__C                                  
c30537c8  ti_sysbios_utils_Load_Module_State_0_runningTask__A                  
c30537cc  ti_sysbios_utils_Load_Module_State_0_taskStartTime__A                
c3053d94  ti_sysbios_utils_Load_Module__diagsEnabled__C                        
c3053d98  ti_sysbios_utils_Load_Module__diagsIncluded__C                       
c3053d9c  ti_sysbios_utils_Load_Module__diagsMask__C                           
c3053e96  ti_sysbios_utils_Load_Module__id__C                                  
c3053e98  ti_sysbios_utils_Load_Module__loggerDefined__C                       
c3053da0  ti_sysbios_utils_Load_Module__loggerFxn1__C                          
c3053da4  ti_sysbios_utils_Load_Module__loggerObj__C                           
c30532c8  ti_sysbios_utils_Load_Module__state__V                               
c304e638  ti_sysbios_utils_Load_idleFxn__E                                     
c304ff64  ti_sysbios_utils_Load_logCPULoad__I                                  
c3053da8  ti_sysbios_utils_Load_postUpdate__C                                  
c3051a6c  ti_sysbios_utils_Load_updateCurrentThreadTime__E                     
c3053e9a  ti_sysbios_utils_Load_updateInIdle__C                                
c304e518  ti_sysbios_utils_Load_updateLoads__E                                 
c304e518  ti_sysbios_utils_Load_update__E                                      
c3053dac  ti_sysbios_utils_Load_windowInMs__C                                  
c3052374  ti_uia_loggers_LoggerStopMode_Handle__label__S                       
c303ef00  ti_uia_loggers_LoggerStopMode_Instance_State_0_hdr__A                
c303e880  ti_uia_loggers_LoggerStopMode_Instance_State_0_packetArray__A        
c303ef80  ti_uia_loggers_LoggerStopMode_Instance_State_1_hdr__A                
c303e080  ti_uia_loggers_LoggerStopMode_Instance_State_1_packetArray__A        
c303f000  ti_uia_loggers_LoggerStopMode_Instance_State_2_hdr__A                
c303e480  ti_uia_loggers_LoggerStopMode_Instance_State_2_packetArray__A        
c3051f9c  ti_uia_loggers_LoggerStopMode_Instance_init__E                       
c30537dc  ti_uia_loggers_LoggerStopMode_Module__FXNS__C                        
c3053db0  ti_uia_loggers_LoggerStopMode_Module__diagsEnabled__C                
c3053db4  ti_uia_loggers_LoggerStopMode_Module__diagsIncluded__C               
c3053db8  ti_uia_loggers_LoggerStopMode_Module__diagsMask__C                   
c3053e9c  ti_uia_loggers_LoggerStopMode_Module__id__C                          
c3053778  ti_uia_loggers_LoggerStopMode_Module__root__V                        
c3050b04  ti_uia_loggers_LoggerStopMode_Module_startup__E                      
c3053aec  ti_uia_loggers_LoggerStopMode_Object__DESC__C                        
c3053950  ti_uia_loggers_LoggerStopMode_Object__PARAMS__C                      
c3053dbc  ti_uia_loggers_LoggerStopMode_Object__count__C                       
c30517e8  ti_uia_loggers_LoggerStopMode_Object__create__S                      
c30520f8  ti_uia_loggers_LoggerStopMode_Object__delete__S                      
c3052a00  ti_uia_loggers_LoggerStopMode_Object__get__S                         
c30530fc  ti_uia_loggers_LoggerStopMode_Object__table__V                       
c30525f8  ti_uia_loggers_LoggerStopMode_disable__E                             
c305261c  ti_uia_loggers_LoggerStopMode_enable__E                              
c3050000  ti_uia_loggers_LoggerStopMode_flush__E                               
c3052c98  ti_uia_loggers_LoggerStopMode_getContents__E                         
c3052ca0  ti_uia_loggers_LoggerStopMode_getFilterLevel__E                      
c3052ca8  ti_uia_loggers_LoggerStopMode_getInstanceId__E                       
c3052cb0  ti_uia_loggers_LoggerStopMode_getMaxLength__E                        
c3052cb8  ti_uia_loggers_LoggerStopMode_getPriority__E                         
c3052cc0  ti_uia_loggers_LoggerStopMode_getTransferType__E                     
c3050b78  ti_uia_loggers_LoggerStopMode_initBuffer__I                          
c304eb64  ti_uia_loggers_LoggerStopMode_initQueueDescriptor__E                 
c30527e8  ti_uia_loggers_LoggerStopMode_isEmpty__E                             
c3053e9e  ti_uia_loggers_LoggerStopMode_isTimestampEnabled__C                  
c30513b4  ti_uia_loggers_LoggerStopMode_reset__E                               
c3052d0c  ti_uia_loggers_LoggerStopMode_setFilterLevel__E                      
c3052d10  ti_uia_loggers_LoggerStopMode_setPriority__E                         
c304df38  ti_uia_loggers_LoggerStopMode_write0__E                              
c304d52c  ti_uia_loggers_LoggerStopMode_write1__E                              
c304d12c  ti_uia_loggers_LoggerStopMode_write2__E                              
c304ca40  ti_uia_loggers_LoggerStopMode_write4__E                              
c304c160  ti_uia_loggers_LoggerStopMode_write8__E                              
c304b408  ti_uia_loggers_LoggerStopMode_writeMemoryRange__E                    
c3053dc0  ti_uia_runtime_ILoggerSnapshot_Interface__BASE__C                    
c3053dc4  ti_uia_runtime_IUIATransfer_Interface__BASE__C                       
c3053708  ti_uia_runtime_QueueDescriptor_Module__state__V                      
c304f7e4  ti_uia_runtime_QueueDescriptor_addToList__E                          
c3053730  ti_uia_runtime_QueueDescriptor_gPtrToFirstDescriptor                 
c3053734  ti_uia_runtime_QueueDescriptor_gUpdateCount                          
c303e010  val                                                                  
c3053dc8  xdc_runtime_Assert_E_assertFailed__C                                 
c30508b8  xdc_runtime_Assert_raise__I                                          
c3053dcc  xdc_runtime_Core_A_initializedParams__C                              
c3053dd0  xdc_runtime_Core_Module__diagsEnabled__C                             
c3053dd4  xdc_runtime_Core_Module__diagsIncluded__C                            
c3053dd8  xdc_runtime_Core_Module__diagsMask__C                                
c3053ea0  xdc_runtime_Core_Module__id__C                                       
c30514b4  xdc_runtime_Core_assignLabel__I                                      
c3051020  xdc_runtime_Core_assignParams__I                                     
c304db80  xdc_runtime_Core_constructObject__I                                  
c304bca8  xdc_runtime_Core_createObject__I                                     
c3050098  xdc_runtime_Core_deleteObject__I                                     
c3053ddc  xdc_runtime_Error_E_memory__C                                        
c3053de0  xdc_runtime_Error_Module__diagsEnabled__C                            
c3053de4  xdc_runtime_Error_Module__diagsIncluded__C                           
c3053de8  xdc_runtime_Error_Module__diagsMask__C                               
c3053ea2  xdc_runtime_Error_Module__loggerDefined__C                           
c3053dec  xdc_runtime_Error_Module__loggerFxn8__C                              
c3053df0  xdc_runtime_Error_Module__loggerObj__C                               
c30537d6  xdc_runtime_Error_Module__state__V                                   
c30523a0  xdc_runtime_Error_check__E                                           
c3052cc8  xdc_runtime_Error_getSite__E                                         
c3052a18  xdc_runtime_Error_init__E                                            
c3053ea4  xdc_runtime_Error_maxDepth__C                                        
c304bb04  xdc_runtime_Error_policyDefault__E                                   
c3053df4  xdc_runtime_Error_policyFxn__C                                       
c3053bc1  xdc_runtime_Error_policy__C                                          
c3050130  xdc_runtime_Error_print__E                                           
c3053df8  xdc_runtime_Error_raiseHook__C                                       
c3052128  xdc_runtime_Error_raiseX__E                                          
c3050fb8  xdc_runtime_Error_setX__E                                            
c3052be4  xdc_runtime_Gate_enterSystem__E                                      
c3052ad0  xdc_runtime_Gate_leaveSystem__E                                      
c3053dfc  xdc_runtime_IFilterLogger_Interface__BASE__C                         
c3053e00  xdc_runtime_IGateProvider_Interface__BASE__C                         
c3053e04  xdc_runtime_IHeap_Interface__BASE__C                                 
c3053e08  xdc_runtime_ILogger_Interface__BASE__C                               
c3053e0c  xdc_runtime_IModule_Interface__BASE__C                               
c3053e10  xdc_runtime_Log_L_error__C                                           
c3053e14  xdc_runtime_LoggerBuf_E_badLevel__C                                  
c30523cc  xdc_runtime_LoggerBuf_Handle__label__S                               
c303edf8  xdc_runtime_LoggerBuf_Instance_State_0_entryArr__A                   
c30526e4  xdc_runtime_LoggerBuf_Instance_finalize__E                           
c3050dac  xdc_runtime_LoggerBuf_Instance_init__E                               
c3052298  xdc_runtime_LoggerBuf_Module_GateProxy_Handle__label__S              
c3052068  xdc_runtime_LoggerBuf_Module_GateProxy_Object__delete__S             
c3052d14  xdc_runtime_LoggerBuf_Module_GateProxy_enter__E                      
c3052d18  xdc_runtime_LoggerBuf_Module_GateProxy_leave__E                      
c3052c70  xdc_runtime_LoggerBuf_Module_GateProxy_query__E                      
c30538c4  xdc_runtime_LoggerBuf_Module__FXNS__C                                
c3053e18  xdc_runtime_LoggerBuf_Module__gateObj__C                             
c3053ea6  xdc_runtime_LoggerBuf_Module__id__C                                  
c3053780  xdc_runtime_LoggerBuf_Module__root__V                                
c30537a0  xdc_runtime_LoggerBuf_Module__state__V                               
c3051b78  xdc_runtime_LoggerBuf_Module_startup__E                              
c3053b0c  xdc_runtime_LoggerBuf_Object__DESC__C                                
c3053a08  xdc_runtime_LoggerBuf_Object__PARAMS__C                              
c3053e1c  xdc_runtime_LoggerBuf_Object__count__C                               
c30501c8  xdc_runtime_LoggerBuf_Object__create__S                              
c3051fd0  xdc_runtime_LoggerBuf_Object__delete__S                              
c3052804  xdc_runtime_LoggerBuf_Object__get__S                                 
c30535b4  xdc_runtime_LoggerBuf_Object__table__V                               
c304cd0c  xdc_runtime_LoggerBuf_TimestampProxy_get32__E                        
c304c764  xdc_runtime_LoggerBuf_TimestampProxy_get64__E                        
c3052abc  xdc_runtime_LoggerBuf_TimestampProxy_getFreq__E                      
c3052b20  xdc_runtime_LoggerBuf_disable__E                                     
c3052b34  xdc_runtime_LoggerBuf_enable__E                                      
c3053ea8  xdc_runtime_LoggerBuf_filterByLevel__C                               
c3050bec  xdc_runtime_LoggerBuf_filterOutEvent__I                              
c304f718  xdc_runtime_LoggerBuf_getFilterLevel__E                              
c3051d90  xdc_runtime_LoggerBuf_reset__E                                       
c304ef38  xdc_runtime_LoggerBuf_setFilterLevel__E                              
c3053e20  xdc_runtime_LoggerBuf_statusLogger__C                                
c3052820  xdc_runtime_LoggerBuf_write0__E                                      
c305283c  xdc_runtime_LoggerBuf_write1__E                                      
c3052704  xdc_runtime_LoggerBuf_write2__E                                      
c304e074  xdc_runtime_LoggerBuf_write4__E                                      
c304b224  xdc_runtime_LoggerBuf_write8__E                                      
c3052298  xdc_runtime_Main_Module_GateProxy_Handle__label__S                   
c3052068  xdc_runtime_Main_Module_GateProxy_Object__delete__S                  
c3052c70  xdc_runtime_Main_Module_GateProxy_query__E                           
c305231c  xdc_runtime_Memory_HeapProxy_Handle__label__S                        
c3051f00  xdc_runtime_Memory_HeapProxy_Object__delete__S                       
c3052ae4  xdc_runtime_Memory_HeapProxy_alloc__E                                
c3052af8  xdc_runtime_Memory_HeapProxy_free__E                                 
c3052b0c  xdc_runtime_Memory_HeapProxy_getStats__E                             
c3053eaa  xdc_runtime_Memory_Module__id__C                                     
c30537d0  xdc_runtime_Memory_Module__state__V                                  
c304fc30  xdc_runtime_Memory_alloc__E                                          
c3052b48  xdc_runtime_Memory_calloc__E                                         
c3053e24  xdc_runtime_Memory_defaultHeapInstance__C                            
c3052b5c  xdc_runtime_Memory_free__E                                           
c3052bf4  xdc_runtime_Memory_getMaxDefaultTypeAlign__E                         
c3052b70  xdc_runtime_Memory_getStats__E                                       
c3052158  xdc_runtime_Memory_valloc__E                                         
c3053788  xdc_runtime_Registry_Module__state__V                                
c3052188  xdc_runtime_Registry_findById__E                                     
c3053790  xdc_runtime_Startup_Module__state__V                                 
00000001  xdc_runtime_Startup__EXECFXN__C                                      
00000001  xdc_runtime_Startup__RESETFXN__C                                     
c3053e28  xdc_runtime_Startup_execImpl__C                                      
c30504a4  xdc_runtime_Startup_exec__E                                          
c3052858  xdc_runtime_Startup_exec__I                                          
c3053bc4  xdc_runtime_Startup_firstFxns__A                                     
c3053be0  xdc_runtime_Startup_firstFxns__C                                     
c3053e2c  xdc_runtime_Startup_lastFxns__A                                      
c3053be8  xdc_runtime_Startup_lastFxns__C                                      
c3053e30  xdc_runtime_Startup_maxPasses__C                                     
c3052d1c  xdc_runtime_Startup_reset__I                                         
c3052c04  xdc_runtime_Startup_rtsDone__E                                       
c3053b2c  xdc_runtime_Startup_sfxnRts__A                                       
c3053e34  xdc_runtime_Startup_sfxnRts__C                                       
c3053884  xdc_runtime_Startup_sfxnTab__A                                       
c3053e38  xdc_runtime_Startup_sfxnTab__C                                       
c304d3d8  xdc_runtime_Startup_startMods__I                                     
c303ee78  xdc_runtime_SysMin_Module_State_0_outbuf__A                          
c3053714  xdc_runtime_SysMin_Module__state__V                                  
c3052004  xdc_runtime_SysMin_Module_startup__E                                 
c3051508  xdc_runtime_SysMin_abort__E                                          
c3053e3c  xdc_runtime_SysMin_bufSize__C                                        
c30521b8  xdc_runtime_SysMin_exit__E                                           
c3053eac  xdc_runtime_SysMin_flushAtExit__C                                    
c3050cd0  xdc_runtime_SysMin_flush__E                                          
c3053e40  xdc_runtime_SysMin_outputFunc__C                                     
c3051ab0  xdc_runtime_SysMin_output__I                                         
c30511f8  xdc_runtime_SysMin_putch__E                                          
c3052874  xdc_runtime_SysMin_ready__E                                          
c3052298  xdc_runtime_System_Module_GateProxy_Handle__label__S                 
c3052068  xdc_runtime_System_Module_GateProxy_Object__delete__S                
c3052d20  xdc_runtime_System_Module_GateProxy_enter__E                         
c3052d24  xdc_runtime_System_Module_GateProxy_leave__E                         
c3052c70  xdc_runtime_System_Module_GateProxy_query__E                         
c3053638  xdc_runtime_System_Module_State_0_atexitHandlers__A                  
c3053e44  xdc_runtime_System_Module__gateObj__C                                
c3053798  xdc_runtime_System_Module__state__V                                  
c3052cd0  xdc_runtime_System_Module_startup__E                                 
c3051508  xdc_runtime_System_SupportProxy_abort__E                             
c30521b8  xdc_runtime_System_SupportProxy_exit__E                              
c3050cd0  xdc_runtime_System_SupportProxy_flush__E                             
c30511f8  xdc_runtime_System_SupportProxy_putch__E                             
c3052874  xdc_runtime_System_SupportProxy_ready__E                             
c3053e48  xdc_runtime_System_abortFxn__C                                       
c3050300  xdc_runtime_System_abortStd__E                                       
c3052538  xdc_runtime_System_abort__E                                          
c3052560  xdc_runtime_System_aprintf__E                                        
c3052d28  xdc_runtime_System_aprintf_va__F                                     
c305155c  xdc_runtime_System_atexit__E                                         
c3051bb8  xdc_runtime_System_avprintf__E                                       
c3047e18  xdc_runtime_System_doPrint__I                                        
c3053e4c  xdc_runtime_System_exitFxn__C                                        
c305030c  xdc_runtime_System_exitStd__E                                        
c3052640  xdc_runtime_System_exit__E                                           
c3053e50  xdc_runtime_System_extendFxn__C                                      
c3050260  xdc_runtime_System_formatNum__I                                      
c3053e54  xdc_runtime_System_maxAtexitHandlers__C                              
c304c2e8  xdc_runtime_System_printfExtend__I                                   
c3052588  xdc_runtime_System_printf__E                                         
c3052d2c  xdc_runtime_System_printf_va__F                                      
c3051914  xdc_runtime_System_processAtExit__E                                  
c30515b0  xdc_runtime_System_putchar__I                                        
c3051cac  xdc_runtime_System_vprintf__E                                        
c3052890  xdc_runtime_System_vsnprintf__E                                      
c3053eae  xdc_runtime_Text_charCnt__C                                          
c3053eb6  xdc_runtime_Text_charTab__A                                          
c3053e58  xdc_runtime_Text_charTab__C                                          
c3051af4  xdc_runtime_Text_cordText__E                                         
c3053eb0  xdc_runtime_Text_isLoaded__C                                         
c3053e5c  xdc_runtime_Text_nameEmpty__C                                        
c3053e60  xdc_runtime_Text_nameStatic__C                                       
c3053e64  xdc_runtime_Text_nameUnknown__C                                      
c3051604  xdc_runtime_Text_printVisFxn__I                                      
c304fe28  xdc_runtime_Text_putLab__E                                           
c304f498  xdc_runtime_Text_putMod__E                                           
c304ec5c  xdc_runtime_Text_putSite__E                                          
c3053eb2  xdc_runtime_Text_registryModsLastId__C                               
c30528ac  xdc_runtime_Text_ropeText__E                                         
c3053eb4  xdc_runtime_Text_unnamedModsLastId__C                                
c3053e68  xdc_runtime_Text_visitRopeFxn__C                                     
c3052c2c  xdc_runtime_Text_visitRope__I                                        
c3051084  xdc_runtime_Text_xprintf__I                                          
c304cd0c  xdc_runtime_Timestamp_SupportProxy_get32__E                          
c304c764  xdc_runtime_Timestamp_SupportProxy_get64__E                          
c3052abc  xdc_runtime_Timestamp_SupportProxy_getFreq__E                        


GLOBAL SYMBOLS: SORTED BY Symbol Address 

address   name                                                                 
-------   ----                                                                 
00000000  _argsize                                                             
00000001  xdc_runtime_Startup__EXECFXN__C                                      
00000001  xdc_runtime_Startup__RESETFXN__C                                     
00000800  __STACK_SIZE                                                         
c3000000  __ASM__                                                              
c3000000  ti_sysbios_heaps_HeapMem_Instance_State_0_buf__A                     
c3000056  __ISA__                                                              
c3000068  __PLAT__                                                             
c3000090  __TARG__                                                             
c30000b7  __TRDR__                                                             
c303c410  ti_sysbios_knl_Task_Instance_State_0_stack__A                        
c303cc10  ti_sysbios_knl_Task_Instance_State_1_stack__A                        
c303d410  ti_sysbios_family_arm_exc_Exception_Module_State_0_excStack_0__A     
c303dc10  ti_sysbios_family_arm_da830_Hwi_Module_State_0_fiqStack__A           
c303e010  val                                                                  
c303e044  regionId                                                             
c303e048  board                                                                
c303e04c  hc165_pins                                                           
c303e080  ti_uia_loggers_LoggerStopMode_Instance_State_1_packetArray__A        
c303e480  ti_uia_loggers_LoggerStopMode_Instance_State_2_packetArray__A        
c303e880  ti_uia_loggers_LoggerStopMode_Instance_State_0_packetArray__A        
c303ea80  ti_sysbios_knl_Mailbox_Instance_State_0_allocBuf__A                  
c303ebc0  __CIOBUF_                                                            
c303ece0  ti_sysbios_knl_Mailbox_Instance_State_1_allocBuf__A                  
c303edf8  xdc_runtime_LoggerBuf_Instance_State_0_entryArr__A                   
c303ee78  xdc_runtime_SysMin_Module_State_0_outbuf__A                          
c303ef00  ti_uia_loggers_LoggerStopMode_Instance_State_0_hdr__A                
c303ef80  ti_uia_loggers_LoggerStopMode_Instance_State_1_hdr__A                
c303f000  ti_uia_loggers_LoggerStopMode_Instance_State_2_hdr__A                
c303f030  EDMA3Init                                                            
c303f22c  EDMA3PeripheralIdGet                                                 
c303f244  EDMA3EnableChInShadowReg                                             
c303f304  EDMA3DisableChInShadowReg                                            
c303f3c4  EDMA3ChannelToParamMap                                               
c303f3f4  EDMA3MapChToEvtQ                                                     
c303f4b4  EDMA3UnmapChToEvtQ                                                   
c303f540  EDMA3MapQdmaChToPaRAM                                                
c303f61c  EDMA3SetQdmaTrigWord                                                 
c303f658  EDMA3ClrMissEvt                                                      
c303f704  EDMA3QdmaClrMissEvt                                                  
c303f758  EDMA3ClrCCErr                                                        
c303f778  EDMA3SetEvt                                                          
c303f7f8  EDMA3ClrEvt                                                          
c303f878  EDMA3EnableDmaEvt                                                    
c303f8f8  EDMA3DisableDmaEvt                                                   
c303f974  EDMA3EnableQdmaEvt                                                   
c303f9ac  EDMA3DisableQdmaEvt                                                  
c303f9e4  EDMA3GetCCErrStatus                                                  
c303fa0c  EDMA3GetIntrStatus                                                   
c303fa44  EDMA3IntrStatusHighGet                                               
c303fa7c  EDMA3GetErrIntrStatus                                                
c303faa4  EDMA3ErrIntrHighStatusGet                                            
c303facc  EDMA3QdmaGetErrIntrStatus                                            
c303faf4  EDMA3EnableEvtIntr                                                   
c303fb74  EDMA3DisableEvtIntr                                                  
c303fbf4  EDMA3ClrIntr                                                         
c303fc64  EDMA3GetPaRAM                                                        
c303fce8  EDMA3QdmaGetPaRAM                                                    
c303fd7c  EDMA3SetPaRAM                                                        
c303fe14  EDMA3QdmaSetPaRAM                                                    
c303fea8  EDMA3QdmaSetPaRAMEntry                                               
c303fefc  EDMA3QdmaGetPaRAMEntry                                               
c303ff5c  EDMA3RequestChannel                                                  
c3040094  EDMA3FreeChannel                                                     
c3040158  EDMA3EnableTransfer                                                  
c3040228  EDMA3DisableTransfer                                                 
c30402f8  EDMA3ClearErrorBits                                                  
c3040490  EDMA3Deinit                                                          
c30405b8  EDMA3ContextSave                                                     
c3040784  EDMA3ContextRestore                                                  
c304097c  DrvTdcInit                                                           
c30411e8  DrvTdcEnable                                                         
c3041214  DrvTdcDisable                                                        
c3041240  DrvTdcGetResult                                                      
c3041270  DrvTdcStart                                                          
c3041c38  DrvTdcDmaAutoStart                                                   
c3041cb8  TdcInt                                                               
c3042000  DrvTdcSetComm                                                        
c304202c  DrvTdcNextChannel                                                    
c3042118  BoardInit                                                            
c30430a4  EHRPWMTimebaseClkConfig                                              
c304318c  EHRPWMPWMOpFreqSet                                                   
c3043230  EHRPWMTBEmulationModeSet                                             
c3043264  EHRPWMTimebaseSyncEnable                                             
c30432bc  EHRPWMTimebaseSyncDisable                                            
c30432dc  EHRPWMTriggerSWSync                                                  
c30432fc  EHRPWMSyncOutModeSet                                                 
c304332c  EHRPWMWriteTBCount                                                   
c304334c  EHRPWMReadTBCount                                                    
c3043364  EHRPWMTBStatusGet                                                    
c3043388  EHRPWMTBClearStatus                                                  
c30433b8  EHRPWMLoadCMPA                                                       
c3043454  EHRPWMLoadCMPB                                                       
c30434f4  EHRPWMConfigureAQActionOnA                                           
c3043590  EHRPWMConfigureAQActionOnB                                           
c3043630  EHRPWMSWForceA                                                       
c3043654  EHRPWMSWForceB                                                       
c3043678  EHRPWMAQContSWForceOnA                                               
c30436d4  EHRPWMAQContSWForceOnB                                               
c3043734  EHRPWMDBSourceSelect                                                 
c304376c  EHRPWMDBPolaritySelect                                               
c30437a4  EHRPWMDBOutput                                                       
c30437d8  EHRPWMDBConfigureRED                                                 
c3043814  EHRPWMDBConfigureFED                                                 
c3043850  EHRPWMConfigureChopperDuty                                           
c3043888  EHRPWMConfigureChopperFreq                                           
c30438d4  EHRPWMConfigureChopperOSPW                                           
c304390c  EHRPWMChopperEnable                                                  
c3043930  EHRPWMChopperDisable                                                 
c3043954  EHRPWMTZTripEventEnable                                              
c30439a8  EHRPWMTZTripEventDisable                                             
c30439fc  EHRPWMTZForceAOnTrip                                                 
c3043a30  EHRPWMTZForceBOnTrip                                                 
c3043a68  EHRPWMTZIntEnable                                                    
c3043abc  EHRPWMTZIntDisable                                                   
c3043b10  EHRPWMTZFlagGet                                                      
c3043b34  EHRPWMTZFlagClear                                                    
c3043b58  EHRPWMTZSWFrcEvent                                                   
c3043b9c  EHRPWMETIntDisable                                                   
c3043bc0  EHRPWMETIntEnable                                                    
c3043be4  EHRPWMETIntSourceSelect                                              
c3043c18  EHRPWMETIntPrescale                                                  
c3043c4c  EHRPWMETEventCount                                                   
c3043c6c  EHRPWMETIntStatus                                                    
c3043c88  EHRPWMETIntClear                                                     
c3043cac  EHRPWMETIntSWForce                                                   
c3043cd0  EHRPWMLoadTBPHSHR                                                    
c3043d08  EHRPWMLoadCMPAHR                                                     
c3043d70  EHRPWMConfigHR                                                       
c3043ddc  EHRPWMHRDisable                                                      
c3043e00  EHRPWMClockEnable                                                    
c3043e24  EHRPWMClockDisable                                                   
c3043e48  EHRPWMClockEnableStatusGet                                           
c3043e74  EHRPWMClockDisableStatusGet                                          
c3043ea0  DrvLacoInit                                                          
c30442ec  DrvLacoNext                                                          
c304434c  DrvLacoSetCap                                                        
c3044468  DrvLacoLink                                                          
c3044488  DrvLacoStart                                                         
c3044784  ConnectorInit                                                        
c3044ea0  DrvSpiInit                                                           
c3045018  DrvSpiWrite                                                          
c304505c  DrvSpiSetCs                                                          
c30450a8  DrvSpiCsHold                                                         
c3045128  DrvSpiWriteDma                                                       
c304513c  DrvSpiRead                                                           
c3045174  DrvSpiReadDma                                                        
c30455ac  GPIODirModeSet                                                       
c304565c  GPIODirModeGet                                                       
c30456dc  GPIOPinWrite                                                         
c3045788  GPIOPinRead                                                          
c3045808  GPIOIntTypeSet                                                       
c30459ac  GPIOIntTypeGet                                                       
c3045a60  GPIOPinIntStatus                                                     
c3045ae0  GPIOPinIntClear                                                      
c3045b48  GPIOBankIntEnable                                                    
c3045b78  GPIOBankIntDisable                                                   
c3045ba8  GPIOBankPinsWrite                                                    
c3045c68  SPIClkConfigure                                                      
c3045cb8  SPIEnable                                                            
c3045cdc  SPIReset                                                             
c3045cf8  SPIOutOfReset                                                        
c3045d14  SPIModeConfigure                                                     
c3045d40  SPIPinControl                                                        
c3045d9c  SPIDelayConfigure                                                    
c3045e34  SPIDefaultCSSet                                                      
c3045e54  SPIDat1Config                                                        
c3045eb0  SPITransmitData1                                                     
c3045ee4  SPICSTimerDisable                                                    
c3045f14  SPICSTimerEnable                                                     
c3045f44  SPICharLengthSet                                                     
c3045f98  SPIConfigClkFormat                                                   
c3045fd0  SPIShiftMsbFirst                                                     
c3046000  SPIShiftLsbFirst                                                     
c3046030  SPIParityEnable                                                      
c3046090  SPIParityDisable                                                     
c30460c0  SPIWdelaySet                                                         
c30460f8  SPIWaitEnable                                                        
c3046128  SPIWaitDisable                                                       
c3046158  SPIIntLevelSet                                                       
c3046184  SPIIntEnable                                                         
c30461b0  SPIIntDisable                                                        
c30461dc  SPIIntStatusClear                                                    
c30461fc  SPIIntStatus                                                         
c3046228  SPIDataReceive                                                       
c3046248  SPIInterruptVectorGet                                                
c304626c  UARTConfigSetExpClk                                                  
c3046330  UARTConfigGetExpClk                                                  
c30463e0  UARTFIFOLevelSet                                                     
c3046408  UARTDMAEnable                                                        
c304642c  UARTDMADisable                                                       
c3046450  UARTParityModeSet                                                    
c3046494  UARTParityModeGet                                                    
c30464bc  UARTEnable                                                           
c30464d8  UARTDisable                                                          
c3046500  UARTFIFOEnable                                                       
c304651c  UARTFIFODisable                                                      
c3046538  UARTSpaceAvail                                                       
c304656c  UARTCharsAvail                                                       
c30465a0  UARTRxErrorGet                                                       
c30465bc  UARTCharPutNonBlocking                                               
c3046600  UARTCharGetNonBlocking                                               
c3046638  UARTCharGet                                                          
c3046670  UARTCharPut                                                          
c30466b4  UARTIntEnable                                                        
c30466e4  UARTIntDisable                                                       
c3046714  UARTIntStatus                                                        
c3046754  UARTBreakCtl                                                         
c30467a0  UARTModemControlSet                                                  
c30467e4  UARTModemControlClear                                                
c3046814  UARTModemControlGet                                                  
c3046830  UARTModemStatusGet                                                   
c3046854  DrvPwmInit                                                           
c3046a84  DrvPwmSetPulseWidth                                                  
c3046b1c  DrvPwmSetDelay                                                       
c3046bec  DrvPwmSetFreq                                                        
c3046c8c  DrvPwmStart                                                          
c3046cbc  DrvPwmStop                                                           
c3046de0  DrvUartInit                                                          
c3046ebc  DrvUartReadChar                                                      
c3046ed8  DrvUartReadCharBlock                                                 
c3046ef8  DrvUartWriteCharBlock                                                
c3046f1c  DrvUartWriteStr                                                      
c3046f74  DrvUartWriteChar                                                     
c3046fbc  DrvUartHasChar                                                       
c3046ffc  DrvUartIsTxRdy                                                       
c304703c  DrvUartDisable                                                       
c3047064  DrvUartHandleInit                                                    
c304736c  I2CMasterInitExpClk                                                  
c304744c  I2CMasterEnable                                                      
c3047484  I2CMasterDisable                                                     
c30474a8  I2CMasterIntEnableEx                                                 
c30474d4  I2CSlaveIntEnableEx                                                  
c3047500  I2CMasterIntDisableEx                                                
c304752c  I2CSlaveIntDisableEx                                                 
c3047558  I2CMasterIntStatus                                                   
c3047578  I2CSlaveIntStatus                                                    
c3047598  I2CSlaveIntStatusEx                                                  
c30475c4  I2CMasterIntClearEx                                                  
c30475e4  I2CSlaveIntClearEx                                                   
c3047604  I2CMasterSlaveAddrSet                                                
c3047624  I2CMasterBusBusy                                                     
c3047640  I2CMasterIsBusy                                                      
c304765c  I2CMasterControl                                                     
c3047690  I2CMasterStart                                                       
c30476b4  I2CMasterStop                                                        
c30476d8  I2CStatusClear                                                       
c30476f8  I2CMasterErr                                                         
c3047720  I2CMasterDataPut                                                     
c3047740  I2CMasterDataGet                                                     
c3047760  I2CSlaveDataPut                                                      
c3047780  I2CSlaveDataGet                                                      
c30477a0  I2CSetDataCount                                                      
c30477c0  I2COwnAddressSet                                                     
c30477dc  I2CInterruptVectorGet                                                
c30477f8  I2CSlaveAddressGet                                                   
c3047818  I2CDMATxRxEventDisable                                               
c3047834  I2CDMATxEventEnable                                                  
c3047858  I2CDMARxEventEnable                                                  
c304787c  I2CDMATxEventDisable                                                 
c30478a0  I2CDMARxEventDisable                                                 
c30478c8  HOSTwrite                                                            
c304794c  HOSTunlink                                                           
c30479b0  HOSTtime64                                                           
c3047a2c  HOSTtime                                                             
c3047a8c  HOSTrename                                                           
c3047b24  HOSTread                                                             
c3047ba8  HOSTopen                                                             
c3047c34  HOSTlseek                                                            
c3047cd4  HOSTgetenv                                                           
c3047d3c  HOSTclose                                                            
c3047dac  HOSTclock                                                            
c3047e18  xdc_runtime_System_doPrint__I                                        
c3048358  DrvAd7265Init                                                        
c30485bc  DrvAd7265Start                                                       
c3048698  DrvAd7265GetResult                                                   
c30486e4  DrvAd7265NextChannel                                                 
c304881c  DrvAd7265NotSupported                                                
c304882c  DrvAd7265Link                                                        
c3048858  ti_sysbios_knl_Semaphore_pend__E                                     
c3048d14  DrvI2cInit                                                           
c3048ea8  DrvI2cRead                                                           
c3048fa0  DrvI2cWrite                                                          
c304913c  DrvLedsInit                                                          
c3049394  DrvLedsUpdate                                                        
c304945c  DrvLedsSet                                                           
c304948c  DrvLedsUnset                                                         
c30494c8  ti_sysbios_heaps_HeapMem_freeUnprotected__E                          
c3049830  ti_sysbios_heaps_HeapMem_allocUnprotected__E                         
c3049b24  ti_sysbios_family_arm_exc_Exception_excDumpContext__I                
c3049e0c  __aeabi_uldivmod                                                     
c304a0c4  DrvDsInit                                                            
c304a1d4  DrvDsUpdate                                                          
c304a22c  DrvDsRead                                                            
c304a360  ti_sysbios_family_arm_exc_Exception_excHandler__I                    
c304a5dc  ti_sysbios_knl_Task_Module_startup__E                                
c304a834  ti_sysbios_timers_timer64_Timer_deviceConfig__I                      
c304aa6c  ti_sysbios_heaps_HeapTrack_free__E                                   
c304ac64  ti_sysbios_family_arm_arm9_Mmu_initTableBuf__I                       
c304ae54  ti_sysbios_heaps_HeapMem_Instance_init__E                            
c304b040  ti_sysbios_knl_Semaphore_post__E                                     
c304b224  xdc_runtime_LoggerBuf_write8__E                                      
c304b408  ti_uia_loggers_LoggerStopMode_writeMemoryRange__E                    
c304b5e8  ti_sysbios_knl_Clock_workFunc__E                                     
c304b7a0  ti_sysbios_family_arm_da830_Hwi_reconfig__E                          
c304b954  ti_sysbios_knl_Swi_run__I                                            
c304bb04  xdc_runtime_Error_policyDefault__E                                   
c304bca8  xdc_runtime_Core_createObject__I                                     
c304be48  __aeabi_ddiv                                                         
c304bfd8  ti_sysbios_family_arm_da830_Hwi_dispatchIRQC__I                      
c304c160  ti_uia_loggers_LoggerStopMode_write8__E                              
c304c2e8  xdc_runtime_System_printfExtend__I                                   
c304c470  __aeabi_memcpy                                                       
c304c470  __aeabi_memcpy4                                                      
c304c470  __aeabi_memcpy8                                                      
c304c470  memcpy                                                               
c304c5f0  DrvMcp3021Init                                                       
c304c668  Mcp3021Read                                                          
c304c6d8  DrvMcp3021Start                                                      
c304c700  DrvMcp3021GetResult                                                  
c304c730  DrvMcp3021NotSupported                                               
c304c740  DrvMcp3021Link                                                       
c304c764  ti_sysbios_timers_timer64_TimestampProvider_get64__E                 
c304c764  xdc_runtime_LoggerBuf_TimestampProxy_get64__E                        
c304c764  xdc_runtime_Timestamp_SupportProxy_get64__E                          
c304c8d4  ti_sysbios_knl_Task_exit__E                                          
c304ca40  ti_uia_loggers_LoggerStopMode_write4__E                              
c304cba8  ti_sysbios_timers_timer64_Timer_start__E                             
c304cd0c  ti_sysbios_timers_timer64_TimestampProvider_get32__E                 
c304cd0c  xdc_runtime_LoggerBuf_TimestampProxy_get32__E                        
c304cd0c  xdc_runtime_Timestamp_SupportProxy_get32__E                          
c304ce70  ti_sysbios_timers_timer64_Timer_setPeriodMicroSecs__E                
c304cfd0  DrvWatchDogInit                                                      
c304d04c  WatchDogUpdatePassword                                               
c304d090  DrvWatchDogFeed                                                      
c304d0fc  DrvWatchDogGiveFood                                                  
c304d12c  ti_uia_loggers_LoggerStopMode_write2__E                              
c304d284  PSCModuleControl                                                     
c304d3d8  xdc_runtime_Startup_startMods__I                                     
c304d52c  ti_uia_loggers_LoggerStopMode_write1__E                              
c304d67c  IsrClock                                                             
c304d710  IsrAdc                                                               
c304d77c  TaskFunc                                                             
c304d780  main                                                                 
c304d7c0  ti_sysbios_family_arm_da830_Hwi_dispatchFIQC__I                      
c304d900  ti_sysbios_knl_Task_checkStacks__E                                   
c304da40  ti_sysbios_timers_timer64_Timer_getFreq__E                           
c304db80  xdc_runtime_Core_constructObject__I                                  
c304dcc0  ti_sysbios_knl_Task_schedule__I                                      
c304ddfc  ti_sysbios_knl_Task_startCore__E                                     
c304df38  ti_uia_loggers_LoggerStopMode_write0__E                              
c304e074  xdc_runtime_LoggerBuf_write4__E                                      
c304e1ac  __aeabi_dmul                                                         
c304e2d4  ti_sysbios_knl_Swi_post__E                                           
c304e3f8  ti_sysbios_gates_GateMutex_enter__E                                  
c304e518  ti_sysbios_utils_Load_updateLoads__E                                 
c304e518  ti_sysbios_utils_Load_update__E                                      
c304e638  ti_sysbios_utils_Load_idleFxn__E                                     
c304e754  __aeabi_idiv                                                         
c304e754  __aeabi_idivmod                                                      
c304e868  ti_sysbios_knl_Semaphore_Instance_init__E                            
c304e96c  ti_sysbios_knl_Task_blockI__E                                        
c304ea68  ti_sysbios_knl_Task_unblockI__E                                      
c304eb64  ti_uia_loggers_LoggerStopMode_initQueueDescriptor__E                 
c304ec5c  xdc_runtime_Text_putSite__E                                          
c304ed54  ti_sysbios_heaps_HeapTrack_alloc__E                                  
c304ee48  __aeabi_uidiv                                                        
c304ee48  __aeabi_uidivmod                                                     
c304ef38  xdc_runtime_LoggerBuf_setFilterLevel__E                              
c304f028  __TI_auto_init                                                       
c304f114  ti_sysbios_family_arm_da830_Hwi_dispatchIRQ__I                       
c304f1f8  ti_sysbios_family_arm_da830_Hwi_Instance_init__E                     
c304f2d8  ti_sysbios_family_arm_da830_Hwi_Module_startup__E                    
c304f3b8  ti_sysbios_heaps_HeapTrack_Instance_finalize__E                      
c304f498  xdc_runtime_Text_putMod__E                                           
c304f574  ti_sysbios_knl_Mailbox_Module_startup__E                             
c304f648  ti_sysbios_family_arm_exc_Exception_excHandlerAsm__I                 
c304f6b0  ti_sysbios_family_arm_exc_Exception_excHandlerDataAsm__I             
c304f718  xdc_runtime_LoggerBuf_getFilterLevel__E                              
c304f7e4  ti_uia_runtime_QueueDescriptor_addToList__E                          
c304f8a8  ti_sysbios_timers_timer64_Timer_initDevice__I                        
c304f968  ti_sysbios_knl_Swi_restoreHwi__E                                     
c304fa20  __aeabi_memclr                                                       
c304fa20  __aeabi_memclr4                                                      
c304fa20  __aeabi_memclr8                                                      
c304fa24  __aeabi_memset                                                       
c304fa24  __aeabi_memset4                                                      
c304fa24  __aeabi_memset8                                                      
c304fa30  memset                                                               
c304fad0  ti_sysbios_family_arm_da830_Hwi_initIntController__I                 
c304fb80  ti_sysbios_timers_timer64_TimestampProvider_Module_startup__E        
c304fc30  xdc_runtime_Memory_alloc__E                                          
c304fce0  __TI_writemsg                                                        
c304fd28  C$$IO$$                                                              
c304fd30  __TI_readmsg                                                         
c304fe28  xdc_runtime_Text_putLab__E                                           
c304fec8  ti_sysbios_knl_Clock_logTick__E                                      
c304ff64  ti_sysbios_utils_Load_logCPULoad__I                                  
c3050000  ti_uia_loggers_LoggerStopMode_flush__E                               
c3050098  xdc_runtime_Core_deleteObject__I                                     
c3050130  xdc_runtime_Error_print__E                                           
c30501c8  xdc_runtime_LoggerBuf_Object__create__S                              
c3050260  xdc_runtime_System_formatNum__I                                      
c30502f8  C$$EXIT                                                              
c3050300  abort                                                                
c3050300  xdc_runtime_System_abortStd__E                                       
c305030c  exit                                                                 
c305030c  xdc_runtime_System_exitStd__E                                        
c3050388  ti_sysbios_timers_timer64_Timer_stop__E                              
c3050418  ti_sysbios_heaps_HeapMem_alloc__E                                    
c30504a4  xdc_runtime_Startup_exec__E                                          
c3050530  copy_in                                                              
c30505b8  ti_sysbios_knl_Swi_schedule__I                                       
c305063c  ti_sysbios_knl_Task_allBlockedFunction__I                            
c30506c0  ti_sysbios_heaps_HeapMem_getStats__E                                 
c3050740  ti_sysbios_knl_Swi_runLoop__I                                        
c30507c0  ti_sysbios_family_xxx_Hwi_switchToIsrStack                           
c30507e0  ti_sysbios_family_xxx_Hwi_switchToTaskStack                          
c30507f8  ti_sysbios_family_xxx_Hwi_switchAndRunFunc                           
c305083c  ti_sysbios_family_arm_arm9_Cache_startup__I                          
c30508b8  xdc_runtime_Assert_raise__I                                          
c3050934  ti_sysbios_family_arm_arm9_Mmu_disable__E                            
c30509a8  ti_sysbios_family_arm_arm9_Mmu_enable__E                             
c3050a1c  ti_sysbios_family_arm_da830_Hwi_handlerSELF__I                       
c3050a90  ti_sysbios_hal_Timer_TimerProxy_startup__E                           
c3050a90  ti_sysbios_knl_Clock_TimerProxy_startup__E                           
c3050a90  ti_sysbios_timers_timer64_Timer_startup__E                           
c3050b04  ti_uia_loggers_LoggerStopMode_Module_startup__E                      
c3050b78  ti_uia_loggers_LoggerStopMode_initBuffer__I                          
c3050bec  xdc_runtime_LoggerBuf_filterOutEvent__I                              
c3050c60  ti_sysbios_timers_timer64_Timer_Module_startup__E                    
c3050cd0  xdc_runtime_SysMin_flush__E                                          
c3050cd0  xdc_runtime_System_SupportProxy_flush__E                             
c3050d40  ti_sysbios_family_arm_da830_Hwi_getStackInfo__E                      
c3050d40  ti_sysbios_hal_Hwi_HwiProxy_getStackInfo__E                          
c3050dac  xdc_runtime_LoggerBuf_Instance_init__E                               
c3050e18  ti_sysbios_family_arm_da830_Hwi_handlerLOWER__I                      
c3050e80  ti_sysbios_family_arm_da830_Hwi_handlerNONE__I                       
c3050ee8  ti_sysbios_family_arm_exc_Exception_initCore0__I                     
c3050f50  ti_sysbios_heaps_HeapMem_init__I                                     
c3050fb8  xdc_runtime_Error_setX__E                                            
c3051020  xdc_runtime_Core_assignParams__I                                     
c3051084  xdc_runtime_Text_xprintf__I                                          
c30510e4  _c_int00                                                             
c3051140  __aeabi_d2uiz                                                        
c305119c  ti_sysbios_knl_Task_restore__E                                       
c30511f8  xdc_runtime_SysMin_putch__E                                          
c30511f8  xdc_runtime_System_SupportProxy_putch__E                             
c3051254  malloc                                                               
c30512ac  ti_sysbios_family_arm_TaskSupport_start__E                           
c30512ac  ti_sysbios_knl_Task_SupportProxy_start__E                            
c3051304  ti_sysbios_hal_Hwi_checkStack                                        
c305135c  ti_sysbios_knl_Swi_startup__E                                        
c30513b4  ti_uia_loggers_LoggerStopMode_reset__E                               
c305140c  ti_sysbios_family_arm_TaskSupport_buildTaskStack                     
c3051460  ti_sysbios_knl_Semaphore_pendTimeout__I                              
c30514b4  xdc_runtime_Core_assignLabel__I                                      
c3051508  xdc_runtime_SysMin_abort__E                                          
c3051508  xdc_runtime_System_SupportProxy_abort__E                             
c305155c  xdc_runtime_System_atexit__E                                         
c30515b0  xdc_runtime_System_putchar__I                                        
c3051604  xdc_runtime_Text_printVisFxn__I                                      
c3051658  ti_sysbios_gates_GateHwi_Object__create__S                           
c30516a8  ti_sysbios_gates_GateMutex_Object__create__S                         
c30516f8  ti_sysbios_heaps_HeapMem_Object__create__S                           
c3051748  ti_sysbios_heaps_HeapTrack_Object__create__S                         
c3051798  ti_sysbios_knl_Semaphore_construct                                   
c30517e8  ti_uia_loggers_LoggerStopMode_Object__create__S                      
c3051838  ti_sysbios_hal_Hwi_initStack                                         
c3051884  ti_sysbios_family_arm_arm9_Mmu_Module_startup__E                     
c30518cc  ti_sysbios_knl_Queue_construct                                       
c3051914  xdc_runtime_System_processAtExit__E                                  
c305195c  ti_sysbios_BIOS_atExitFunc__I                                        
c30519a0  ti_sysbios_heaps_HeapMem_free__E                                     
c30519e4  ti_sysbios_knl_Clock_doTick__I                                       
c3051a28  ti_sysbios_knl_Task_restoreHwi__E                                    
c3051a6c  ti_sysbios_utils_Load_updateCurrentThreadTime__E                     
c3051ab0  xdc_runtime_SysMin_output__I                                         
c3051af4  xdc_runtime_Text_cordText__E                                         
c3051b38  DrvAdcChInit                                                         
c3051b78  xdc_runtime_LoggerBuf_Module_startup__E                              
c3051bb8  xdc_runtime_System_avprintf__E                                       
c3051bf8  ti_sysbios_family_arm_da830_Hwi_init__I                              
c3051c34  ti_sysbios_heaps_HeapTrack_Instance_init__E                          
c3051c70  ti_sysbios_knl_Swi_Module_startup__E                                 
c3051cac  xdc_runtime_System_vprintf__E                                        
c3051ce8  ti_sysbios_BIOS_startFunc__I                                         
c3051d20  ti_sysbios_family_arm_da830_TimerSupport_enable__E                   
c3051d20  ti_sysbios_timers_timer64_Timer_TimerSupportProxy_enable__E          
c3051d58  ti_sysbios_knl_Clock_Module_startup__E                               
c3051d90  LoggerBuf_instanceStartup                                            
c3051d90  xdc_runtime_LoggerBuf_reset__E                                       
c3051dc8  ti_sysbios_family_arm_arm9_Mmu_enableAsm__I                          
c3051dfc  __aeabi_ui2d                                                         
c3051e30  ti_sysbios_BIOS_registerRTSLock__I                                   
c3051e64  ti_sysbios_BIOS_removeRTSLock__I                                     
c3051e98  ti_sysbios_family_arm_arm9_Cache_enable__E                           
c3051e98  ti_sysbios_hal_Cache_CacheProxy_enable__E                            
c3051ecc  ti_sysbios_BIOS_RtsGateProxy_Object__delete__S                       
c3051ecc  ti_sysbios_gates_GateMutex_Object__delete__S                         
c3051ecc  ti_sysbios_heaps_HeapMem_Module_GateProxy_Object__delete__S          
c3051f00  ti_sysbios_heaps_HeapTrack_Object__delete__S                         
c3051f00  xdc_runtime_Memory_HeapProxy_Object__delete__S                       
c3051f34  ti_sysbios_knl_Idle_run__E                                           
c3051f68  ti_sysbios_knl_Task_enter__I                                         
c3051f9c  ti_uia_loggers_LoggerStopMode_Instance_init__E                       
c3051fd0  xdc_runtime_LoggerBuf_Object__delete__S                              
c3052004  xdc_runtime_SysMin_Module_startup__E                                 
c3052038  ti_sysbios_BIOS_rtsLock__I                                           
c3052068  ti_sysbios_gates_GateHwi_Object__delete__S                           
c3052068  xdc_runtime_LoggerBuf_Module_GateProxy_Object__delete__S             
c3052068  xdc_runtime_Main_Module_GateProxy_Object__delete__S                  
c3052068  xdc_runtime_System_Module_GateProxy_Object__delete__S                
c3052098  ti_sysbios_gates_GateMutex_Instance_init__E                          
c30520c8  ti_sysbios_heaps_HeapMem_Object__delete__S                           
c30520f8  ti_uia_loggers_LoggerStopMode_Object__delete__S                      
c3052128  xdc_runtime_Error_raiseX__E                                          
c3052158  xdc_runtime_Memory_valloc__E                                         
c3052188  xdc_runtime_Registry_findById__E                                     
c30521b8  xdc_runtime_SysMin_exit__E                                           
c30521b8  xdc_runtime_System_SupportProxy_exit__E                              
c30521e8  ti_sysbios_BIOS_errorRaiseHook__I                                    
c3052214  ti_sysbios_family_arm_HwiCommon_Module_startup__E                    
c3052240  ti_sysbios_family_arm_da830_Hwi_disableInterrupt__E                  
c3052240  ti_sysbios_hal_Hwi_HwiProxy_disableInterrupt__E                      
c305226c  ti_sysbios_family_arm_da830_Hwi_enableInterrupt__E                   
c305226c  ti_sysbios_hal_Hwi_HwiProxy_enableInterrupt__E                       
c3052298  ti_sysbios_gates_GateHwi_Handle__label__S                            
c3052298  xdc_runtime_LoggerBuf_Module_GateProxy_Handle__label__S              
c3052298  xdc_runtime_Main_Module_GateProxy_Handle__label__S                   
c3052298  xdc_runtime_System_Module_GateProxy_Handle__label__S                 
c30522c4  ti_sysbios_BIOS_RtsGateProxy_Handle__label__S                        
c30522c4  ti_sysbios_gates_GateMutex_Handle__label__S                          
c30522c4  ti_sysbios_heaps_HeapMem_Module_GateProxy_Handle__label__S           
c30522f0  ti_sysbios_heaps_HeapMem_Handle__label__S                            
c305231c  ti_sysbios_heaps_HeapTrack_Handle__label__S                          
c305231c  xdc_runtime_Memory_HeapProxy_Handle__label__S                        
c3052348  ti_sysbios_knl_Semaphore_Object__destruct__S                         
c3052374  ti_uia_loggers_LoggerStopMode_Handle__label__S                       
c30523a0  xdc_runtime_Error_check__E                                           
c30523cc  xdc_runtime_LoggerBuf_Handle__label__S                               
c30523f8  free                                                                 
c3052420  ti_sysbios_BIOS_rtsUnlock__I                                         
c3052448  ti_sysbios_family_arm_da830_Hwi_Module__startupDone__F               
c3052448  ti_sysbios_family_arm_da830_Hwi_Module__startupDone__S               
c3052448  ti_sysbios_hal_Hwi_HwiProxy_Module__startupDone__S                   
c3052470  ti_sysbios_family_arm_da830_Hwi_handlerALL__I                        
c3052498  ti_sysbios_gates_GateMutex_leave__E                                  
c30524c0  ti_sysbios_knl_Queue_Object__destruct__S                             
c30524e8  ti_sysbios_hal_Timer_TimerProxy_Module__startupDone__S               
c30524e8  ti_sysbios_knl_Clock_TimerProxy_Module__startupDone__S               
c30524e8  ti_sysbios_timers_timer64_Timer_Module__startupDone__F               
c30524e8  ti_sysbios_timers_timer64_Timer_Module__startupDone__S               
c3052510  ti_sysbios_timers_timer64_TimestampProvider_startTimer__E            
c3052538  xdc_runtime_System_abort__E                                          
c3052560  xdc_runtime_System_aprintf__E                                        
c3052588  xdc_runtime_System_printf__E                                         
c30525b0  _register_unlock                                                     
c30525bc  _register_lock                                                       
c30525c8  _nop                                                                 
c30525d4  __aeabi_llsr                                                         
c30525f8  ti_uia_loggers_LoggerStopMode_disable__E                             
c305261c  ti_uia_loggers_LoggerStopMode_enable__E                              
c3052640  xdc_runtime_System_exit__E                                           
c3052664  _args_main                                                           
c3052684  strlen                                                               
c30526a4  ti_sysbios_BIOS_exitFunc__I                                          
c30526c4  ti_sysbios_family_arm_da830_Hwi_switchFromBootStack__E               
c30526c4  ti_sysbios_hal_Hwi_HwiProxy_switchFromBootStack__E                   
c30526e4  xdc_runtime_LoggerBuf_Instance_finalize__E                           
c3052704  xdc_runtime_LoggerBuf_write2__E                                      
c3052724  ti_sysbios_family_arm_TaskSupport_glue                               
c3052740  ti_sysbios_family_arm_arm9_Cache_disableL1d__I                       
c305275c  ti_sysbios_family_arm_arm9_Cache_getEnabled__E                       
c3052778  strcpy                                                               
c3052794  ti_sysbios_heaps_HeapMem_Object__get__S                              
c30527b0  ti_sysbios_knl_Mailbox_Object__get__S                                
c30527cc  ti_sysbios_knl_Swi_Object__get__S                                    
c30527e8  ti_uia_loggers_LoggerStopMode_isEmpty__E                             
c3052804  xdc_runtime_LoggerBuf_Object__get__S                                 
c3052820  xdc_runtime_LoggerBuf_write0__E                                      
c305283c  xdc_runtime_LoggerBuf_write1__E                                      
c3052858  xdc_runtime_Startup_exec__I                                          
c3052874  xdc_runtime_SysMin_ready__E                                          
c3052874  xdc_runtime_System_SupportProxy_ready__E                             
c3052890  xdc_runtime_System_vsnprintf__E                                      
c30528ac  xdc_runtime_Text_ropeText__E                                         
c30528c8  ti_sysbios_family_arm_arm9_Cache_disableL1p__I                       
c30528e0  ti_sysbios_family_arm_arm9_Cache_enableL1p__I                        
c30528f8  ti_sysbios_family_arm_arm9_Mmu_disableAsm__I                         
c3052910  ti_sysbios_BIOS_setThreadType__E                                     
c3052928  ti_sysbios_BIOS_start__E                                             
c3052940  ti_sysbios_hal_Hwi_Module_startup__E                                 
c3052958  ti_sysbios_hal_Timer_Module_startup__E                               
c3052970  ti_sysbios_heaps_HeapTrack_isBlocking__E                             
c3052988  ti_sysbios_knl_Queue_empty__E                                        
c30529a0  ti_sysbios_knl_Swi_disable__E                                        
c30529b8  ti_sysbios_knl_Task_Object__get__S                                   
c30529d0  ti_sysbios_knl_Task_disable__E                                       
c30529e8  ti_sysbios_timers_timer64_TimestampProvider_rolloverFunc__E          
c3052a00  ti_uia_loggers_LoggerStopMode_Object__get__S                         
c3052a18  xdc_runtime_Error_init__E                                            
c3052a30  ti_sysbios_family_arm_arm9_Cache_enableL1d__I                        
c3052a44  ti_sysbios_family_arm_arm9_Mmu_isEnabled__E                          
c3052a58  __TI_decompress_none                                                 
c3052a6c  ti_sysbios_family_arm_TaskSupport_checkStack__E                      
c3052a6c  ti_sysbios_knl_Task_SupportProxy_checkStack__E                       
c3052a80  ti_sysbios_gates_GateMutex_Instance_finalize__E                      
c3052a94  ti_sysbios_knl_Queue_Object__get__S                                  
c3052aa8  ti_sysbios_knl_Semaphore_Instance_finalize__E                        
c3052abc  ti_sysbios_timers_timer64_TimestampProvider_getFreq__E               
c3052abc  xdc_runtime_LoggerBuf_TimestampProxy_getFreq__E                      
c3052abc  xdc_runtime_Timestamp_SupportProxy_getFreq__E                        
c3052ad0  xdc_runtime_Gate_leaveSystem__E                                      
c3052ae4  xdc_runtime_Memory_HeapProxy_alloc__E                                
c3052af8  xdc_runtime_Memory_HeapProxy_free__E                                 
c3052b0c  xdc_runtime_Memory_HeapProxy_getStats__E                             
c3052b20  xdc_runtime_LoggerBuf_disable__E                                     
c3052b34  xdc_runtime_LoggerBuf_enable__E                                      
c3052b48  xdc_runtime_Memory_calloc__E                                         
c3052b5c  xdc_runtime_Memory_free__E                                           
c3052b70  xdc_runtime_Memory_getStats__E                                       
c3052b84  ti_sysbios_family_arm_TaskSupport_swap__E                            
c3052b84  ti_sysbios_knl_Task_SupportProxy_swap__E                             
c3052b94  ti_sysbios_family_arm_arm9_Cache_wbInvAll__E                         
c3052b94  ti_sysbios_hal_Cache_CacheProxy_wbInvAll__E                          
c3052ba4  ti_sysbios_family_arm_da830_Hwi_clearInterrupt__E                    
c3052ba4  ti_sysbios_hal_Hwi_HwiProxy_clearInterrupt__E                        
c3052bb4  ti_sysbios_family_arm_da830_Hwi_startup__E                           
c3052bb4  ti_sysbios_hal_Hwi_HwiProxy_startup__E                               
c3052bc4  ti_sysbios_family_arm_exc_Exception_Module_startup__E                
c3052bd4  ti_sysbios_gates_GateHwi_enter__E                                    
c3052be4  xdc_runtime_Gate_enterSystem__E                                      
c3052bf4  xdc_runtime_Memory_getMaxDefaultTypeAlign__E                         
c3052c04  xdc_runtime_Startup_rtsDone__E                                       
c3052c14  ti_sysbios_knl_Idle_loop__E                                          
c3052c20  ti_sysbios_knl_Queue_Instance_init__E                                
c3052c2c  xdc_runtime_Text_visitRope__I                                        
c3052c38  ti_sysbios_family_arm_arm9_Cache_invL1dAll__E                        
c3052c40  ti_sysbios_family_arm_arm9_Cache_invL1pAll__E                        
c3052c48  ti_sysbios_family_arm_arm9_Cache_wait__E                             
c3052c48  ti_sysbios_hal_Cache_CacheProxy_wait__E                              
c3052c50  __TI_decompress_rle24                                                
c3052c58  EDMAVersionGet                                                       
c3052c60  ti_sysbios_family_arm_TaskSupport_Module__startupDone__S             
c3052c60  ti_sysbios_knl_Task_SupportProxy_Module__startupDone__S              
c3052c68  ti_sysbios_gates_GateHwi_leave__E                                    
c3052c70  ti_sysbios_gates_GateHwi_query__E                                    
c3052c70  xdc_runtime_LoggerBuf_Module_GateProxy_query__E                      
c3052c70  xdc_runtime_Main_Module_GateProxy_query__E                           
c3052c70  xdc_runtime_System_Module_GateProxy_query__E                         
c3052c78  ti_sysbios_BIOS_RtsGateProxy_query__E                                
c3052c78  ti_sysbios_gates_GateMutex_query__E                                  
c3052c78  ti_sysbios_heaps_HeapMem_Module_GateProxy_query__E                   
c3052c80  ti_sysbios_heaps_HeapMem_isBlocking__E                               
c3052c88  ti_sysbios_heaps_HeapTrack_getStats__E                               
c3052c90  ti_sysbios_timers_timer64_Timer_getMaxTicks__E                       
c3052c98  ti_uia_loggers_LoggerStopMode_getContents__E                         
c3052ca0  ti_uia_loggers_LoggerStopMode_getFilterLevel__E                      
c3052ca8  ti_uia_loggers_LoggerStopMode_getInstanceId__E                       
c3052cb0  ti_uia_loggers_LoggerStopMode_getMaxLength__E                        
c3052cb8  ti_uia_loggers_LoggerStopMode_getPriority__E                         
c3052cc0  ti_uia_loggers_LoggerStopMode_getTransferType__E                     
c3052cc8  xdc_runtime_Error_getSite__E                                         
c3052cd0  xdc_runtime_System_Module_startup__E                                 
c3052cd8  __aeabi_idiv0                                                        
c3052cdc  ti_sysbios_BIOS_RtsGateProxy_enter__E                                
c3052ce0  ti_sysbios_BIOS_RtsGateProxy_leave__E                                
c3052ce4  ti_sysbios_BIOS_linkedWithIncorrectBootLibrary__E                    
c3052ce8  ti_sysbios_BIOS_nullFunc__I                                          
c3052cec  ti_sysbios_family_arm_da830_Hwi_spuriousInt__I                       
c3052cf0  ti_sysbios_gates_GateHwi_Instance_init__E                            
c3052cf4  ti_sysbios_heaps_HeapMem_Module_GateProxy_enter__E                   
c3052cf8  ti_sysbios_heaps_HeapMem_Module_GateProxy_leave__E                   
c3052cfc  ti_sysbios_knl_Clock_TimerProxy_getMaxTicks__E                       
c3052d00  ti_sysbios_knl_Queue_destruct                                        
c3052d04  ti_sysbios_knl_Semaphore_destruct                                    
c3052d08  ti_sysbios_knl_Task_startup__E                                       
c3052d0c  ti_uia_loggers_LoggerStopMode_setFilterLevel__E                      
c3052d10  ti_uia_loggers_LoggerStopMode_setPriority__E                         
c3052d14  xdc_runtime_LoggerBuf_Module_GateProxy_enter__E                      
c3052d18  xdc_runtime_LoggerBuf_Module_GateProxy_leave__E                      
c3052d1c  xdc_runtime_Startup_reset__I                                         
c3052d20  xdc_runtime_System_Module_GateProxy_enter__E                         
c3052d24  xdc_runtime_System_Module_GateProxy_leave__E                         
c3052d28  xdc_runtime_System_aprintf_va__F                                     
c3052d2c  xdc_runtime_System_printf_va__F                                      
c3052d30  ti_sysbios_family_arm_da830_Hwi_Module__state__V                     
c3052f5c  ti_sysbios_knl_Task_Module_State_0_readyQ__A                         
c305305c  ti_sysbios_knl_Mailbox_Object__table__V                              
c30530fc  ti_uia_loggers_LoggerStopMode_Object__table__V                       
c3053198  ti_sysbios_knl_Task_Object__table__V                                 
c3053230  ti_sysbios_timers_timer64_Timer_Object__table__V                     
c30532c8  ti_sysbios_utils_Load_Module__state__V                               
c3053360  ti_sysbios_knl_Swi_Module_State_0_readyQ__A                          
c30533e0  ti_sysbios_timers_timer64_Timer_Module_State_0_device__A             
c3053440  ti_sysbios_knl_Task_Module__state__V                                 
c3053484  ti_sysbios_knl_Clock_Object__table__V                                
c30534c4  ti_sysbios_family_arm_da830_Hwi_Object__table__V                     
c30534fc  ti_sysbios_gates_GateMutex_Object__table__V                          
c3053534  ti_sysbios_knl_Swi_Object__table__V                                  
c3053564  ti_sysbios_knl_Clock_Module__state__V                                
c3053590  ti_sysbios_BIOS_Module__state__V                                     
c30535b4  xdc_runtime_LoggerBuf_Object__table__V                               
c30535d8  ti_sysbios_heaps_HeapTrack_Object__table__V                          
c30535f8  ti_sysbios_timers_timer64_Timer_Module_State_0_handles__A            
c3053618  ti_sysbios_timers_timer64_Timer_Module_State_0_intFreqs__A           
c3053638  xdc_runtime_System_Module_State_0_atexitHandlers__A                  
c3053658  ti_sysbios_knl_Swi_Module__state__V                                  
c3053674  ti_sysbios_heaps_HeapMem_Object__table__V                            
c305368c  ti_sysbios_timers_timer64_Timer_Module_State_0_gctrl__A              
c30536a4  ti_sysbios_timers_timer64_Timer_Module__state__V                     
c30536bc  ti_sysbios_family_arm_exc_Exception_Module__state__V                 
c30536d0  ti_sysbios_family_arm_HwiCommon_Module__state__V                     
c30536e0  ti_sysbios_hal_Hwi_Object__table__V                                  
c30536f0  __TI_cleanup_ptr                                                     
c30536f4  __TI_dtors_ptr                                                       
c30536f8  __TI_enable_exit_profile_output                                      
c30536fc  ti_sysbios_knl_Task_Module__root__V                                  
c3053708  ti_uia_runtime_QueueDescriptor_Module__state__V                      
c3053714  xdc_runtime_SysMin_Module__state__V                                  
c3053720  _lock                                                                
c3053724  _unlock                                                              
c3053728  cnt                                                                  
c305372c  cnt2                                                                 
c3053730  ti_uia_runtime_QueueDescriptor_gPtrToFirstDescriptor                 
c3053734  ti_uia_runtime_QueueDescriptor_gUpdateCount                          
c3053738  ti_sysbios_gates_GateHwi_Module__root__V                             
c3053740  ti_sysbios_gates_GateMutex_Module__root__V                           
c3053748  ti_sysbios_heaps_HeapMem_Module__root__V                             
c3053750  ti_sysbios_heaps_HeapTrack_Module__root__V                           
c3053758  ti_sysbios_knl_Queue_Module__root__V                                 
c3053760  ti_sysbios_knl_Queue_Object__table__V                                
c3053768  ti_sysbios_knl_Semaphore_Module__root__V                             
c3053770  ti_sysbios_timers_timer64_TimestampProvider_Module__state__V         
c3053778  ti_uia_loggers_LoggerStopMode_Module__root__V                        
c3053780  xdc_runtime_LoggerBuf_Module__root__V                                
c3053788  xdc_runtime_Registry_Module__state__V                                
c3053790  xdc_runtime_Startup_Module__state__V                                 
c3053798  xdc_runtime_System_Module__state__V                                  
c30537a0  xdc_runtime_LoggerBuf_Module__state__V                               
c30537a6  ti_sysbios_family_arm_da830_TimerSupport_Module_State_0_suspSrc__A   
c30537a8  main_func_sp                                                         
c30537ac  ti_sysbios_family_arm_arm9_Mmu_Module__state__V                      
c30537b0  ti_sysbios_family_arm_da830_TimerSupport_Module__state__V            
c30537b4  ti_sysbios_family_arm_exc_Exception_Module_State_0_excContext__A     
c30537b8  ti_sysbios_family_arm_exc_Exception_Module_State_0_excStackBuffers__A
c30537bc  ti_sysbios_family_arm_exc_Exception_Module_State_0_excStack__A       
c30537c0  ti_sysbios_gates_GateHwi_Object__table__V                            
c30537c4  ti_sysbios_knl_Task_Module_State_0_idleTask__A                       
c30537c8  ti_sysbios_utils_Load_Module_State_0_runningTask__A                  
c30537cc  ti_sysbios_utils_Load_Module_State_0_taskStartTime__A                
c30537d0  xdc_runtime_Memory_Module__state__V                                  
c30537d4  ti_sysbios_family_arm_exc_Exception_Module_State_0_excActive__A      
c30537d6  xdc_runtime_Error_Module__state__V                                   
c30537dc  ti_uia_loggers_LoggerStopMode_Module__FXNS__C                        
c3053884  xdc_runtime_Startup_sfxnTab__A                                       
c30538c4  xdc_runtime_LoggerBuf_Module__FXNS__C                                
c3053900  ti_sysbios_heaps_HeapMem_Module__FXNS__C                             
c3053928  ti_sysbios_heaps_HeapTrack_Module__FXNS__C                           
c3053950  ti_uia_loggers_LoggerStopMode_Object__PARAMS__C                      
c3053978  ti_sysbios_gates_GateHwi_Module__FXNS__C                             
c305399c  ti_sysbios_gates_GateMutex_Module__FXNS__C                           
c30539c0  ti_sysbios_heaps_HeapMem_Object__PARAMS__C                           
c30539e4  ti_sysbios_knl_Semaphore_Object__PARAMS__C                           
c3053a08  xdc_runtime_LoggerBuf_Object__PARAMS__C                              
c3053a2c  ti_sysbios_gates_GateHwi_Object__DESC__C                             
c3053a4c  ti_sysbios_gates_GateMutex_Object__DESC__C                           
c3053a6c  ti_sysbios_heaps_HeapMem_Object__DESC__C                             
c3053a8c  ti_sysbios_heaps_HeapTrack_Object__DESC__C                           
c3053aac  ti_sysbios_knl_Queue_Object__DESC__C                                 
c3053acc  ti_sysbios_knl_Semaphore_Object__DESC__C                             
c3053aec  ti_uia_loggers_LoggerStopMode_Object__DESC__C                        
c3053b0c  xdc_runtime_LoggerBuf_Object__DESC__C                                
c3053b2c  xdc_runtime_Startup_sfxnRts__A                                       
c3053b4c  ti_sysbios_heaps_HeapTrack_Object__PARAMS__C                         
c3053b68  ti_sysbios_gates_GateHwi_Object__PARAMS__C                           
c3053b80  ti_sysbios_gates_GateMutex_Object__PARAMS__C                         
c3053b98  ti_sysbios_knl_Queue_Object__PARAMS__C                               
c3053bc1  xdc_runtime_Error_policy__C                                          
c3053bc2  ti_sysbios_family_arm_arm9_Cache_enableCache__C                      
c3053bc4  xdc_runtime_Startup_firstFxns__A                                     
c3053bd0  ti_sysbios_knl_Idle_funcList__A                                      
c3053bd8  ti_sysbios_knl_Idle_funcList__C                                      
c3053be0  xdc_runtime_Startup_firstFxns__C                                     
c3053be8  xdc_runtime_Startup_lastFxns__C                                      
c3053bf0  ti_sysbios_family_arm_da830_Hwi_A_unsupportedMaskingOption__C        
c3053bf4  ti_sysbios_family_arm_da830_Hwi_E_alreadyDefined__C                  
c3053bf8  ti_sysbios_family_arm_da830_Hwi_LD_end__C                            
c3053bfc  ti_sysbios_family_arm_da830_Hwi_LM_begin__C                          
c3053c00  ti_sysbios_family_arm_da830_Hwi_Module__diagsEnabled__C              
c3053c04  ti_sysbios_family_arm_da830_Hwi_Module__diagsIncluded__C             
c3053c08  ti_sysbios_family_arm_da830_Hwi_Module__diagsMask__C                 
c3053c0c  ti_sysbios_family_arm_da830_Hwi_Module__loggerFxn1__C                
c3053c10  ti_sysbios_family_arm_da830_Hwi_Module__loggerFxn4__C                
c3053c14  ti_sysbios_family_arm_da830_Hwi_Module__loggerFxn8__C                
c3053c18  ti_sysbios_family_arm_da830_Hwi_Module__loggerObj__C                 
c3053c1c  ti_sysbios_family_arm_da830_Hwi_taskDisable__C                       
c3053c20  ti_sysbios_family_arm_da830_Hwi_taskRestoreHwi__C                    
c3053c24  ti_sysbios_family_arm_exc_Exception_E_dataAbort__C                   
c3053c28  ti_sysbios_family_arm_exc_Exception_E_prefetchAbort__C               
c3053c2c  ti_sysbios_family_arm_exc_Exception_E_swi__C                         
c3053c30  ti_sysbios_family_arm_exc_Exception_E_undefinedInstruction__C        
c3053c34  ti_sysbios_family_arm_exc_Exception_excHookFuncs__A                  
c3053c38  ti_sysbios_family_arm_exc_Exception_excHookFuncs__C                  
c3053c3c  ti_sysbios_gates_GateMutex_A_badContext__C                           
c3053c40  ti_sysbios_gates_GateMutex_Instance_State_sem__O                     
c3053c44  ti_sysbios_gates_GateMutex_Module__diagsEnabled__C                   
c3053c48  ti_sysbios_gates_GateMutex_Module__diagsIncluded__C                  
c3053c4c  ti_sysbios_gates_GateMutex_Module__diagsMask__C                      
c3053c50  ti_sysbios_hal_Hwi_E_stackOverflow__C                                
c3053c54  ti_sysbios_heaps_HeapMem_A_align__C                                  
c3053c58  ti_sysbios_heaps_HeapMem_A_heapSize__C                               
c3053c5c  ti_sysbios_heaps_HeapMem_A_invalidFree__C                            
c3053c60  ti_sysbios_heaps_HeapMem_A_zeroBlock__C                              
c3053c64  ti_sysbios_heaps_HeapMem_E_memory__C                                 
c3053c68  ti_sysbios_heaps_HeapMem_Module__diagsEnabled__C                     
c3053c6c  ti_sysbios_heaps_HeapMem_Module__diagsIncluded__C                    
c3053c70  ti_sysbios_heaps_HeapMem_Module__diagsMask__C                        
c3053c74  ti_sysbios_heaps_HeapMem_Module__gateObj__C                          
c3053c78  ti_sysbios_heaps_HeapMem_Object__count__C                            
c3053c7c  ti_sysbios_heaps_HeapMem_reqAlign__C                                 
c3053c80  ti_sysbios_heaps_HeapTrack_A_bufOverflow__C                          
c3053c84  ti_sysbios_heaps_HeapTrack_A_doubleFree__C                           
c3053c88  ti_sysbios_heaps_HeapTrack_A_notEmpty__C                             
c3053c8c  ti_sysbios_heaps_HeapTrack_Instance_State_trackQueue__O              
c3053c90  ti_sysbios_heaps_HeapTrack_Module__diagsEnabled__C                   
c3053c94  ti_sysbios_heaps_HeapTrack_Module__diagsIncluded__C                  
c3053c98  ti_sysbios_heaps_HeapTrack_Module__diagsMask__C                      
c3053c9c  ti_sysbios_knl_Clock_LM_begin__C                                     
c3053ca0  ti_sysbios_knl_Clock_LM_tick__C                                      
c3053ca4  ti_sysbios_knl_Clock_LW_delayed__C                                   
c3053ca8  ti_sysbios_knl_Clock_Module_State_clockQ__O                          
c3053cac  ti_sysbios_knl_Clock_Module__diagsEnabled__C                         
c3053cb0  ti_sysbios_knl_Clock_Module__diagsIncluded__C                        
c3053cb4  ti_sysbios_knl_Clock_Module__diagsMask__C                            
c3053cb8  ti_sysbios_knl_Clock_Module__loggerFxn1__C                           
c3053cbc  ti_sysbios_knl_Clock_Module__loggerFxn2__C                           
c3053cc0  ti_sysbios_knl_Clock_Module__loggerObj__C                            
c3053cc4  ti_sysbios_knl_Mailbox_Instance_State_freeQue__O                     
c3053cc8  ti_sysbios_knl_Mailbox_Object__count__C                              
c3053ccc  ti_sysbios_knl_Mailbox_maxTypeAlign__C                               
c3053cd0  ti_sysbios_knl_Semaphore_A_badContext__C                             
c3053cd4  ti_sysbios_knl_Semaphore_A_noEvents__C                               
c3053cd8  ti_sysbios_knl_Semaphore_A_overflow__C                               
c3053cdc  ti_sysbios_knl_Semaphore_A_pendTaskDisabled__C                       
c3053ce0  ti_sysbios_knl_Semaphore_Instance_State_pendQ__O                     
c3053ce4  ti_sysbios_knl_Semaphore_LM_pend__C                                  
c3053ce8  ti_sysbios_knl_Semaphore_LM_post__C                                  
c3053cec  ti_sysbios_knl_Semaphore_Module__diagsEnabled__C                     
c3053cf0  ti_sysbios_knl_Semaphore_Module__diagsIncluded__C                    
c3053cf4  ti_sysbios_knl_Semaphore_Module__diagsMask__C                        
c3053cf8  ti_sysbios_knl_Semaphore_Module__loggerFxn2__C                       
c3053cfc  ti_sysbios_knl_Semaphore_Module__loggerFxn4__C                       
c3053d00  ti_sysbios_knl_Semaphore_Module__loggerObj__C                        
c3053d04  ti_sysbios_knl_Swi_LD_end__C                                         
c3053d08  ti_sysbios_knl_Swi_LM_begin__C                                       
c3053d0c  ti_sysbios_knl_Swi_LM_post__C                                        
c3053d10  ti_sysbios_knl_Swi_Module__diagsEnabled__C                           
c3053d14  ti_sysbios_knl_Swi_Module__diagsIncluded__C                          
c3053d18  ti_sysbios_knl_Swi_Module__diagsMask__C                              
c3053d1c  ti_sysbios_knl_Swi_Module__loggerFxn1__C                             
c3053d20  ti_sysbios_knl_Swi_Module__loggerFxn4__C                             
c3053d24  ti_sysbios_knl_Swi_Module__loggerObj__C                              
c3053d28  ti_sysbios_knl_Swi_Object__count__C                                  
c3053d2c  ti_sysbios_knl_Task_E_spOutOfBounds__C                               
c3053d30  ti_sysbios_knl_Task_E_stackOverflow__C                               
c3053d34  ti_sysbios_knl_Task_LD_block__C                                      
c3053d38  ti_sysbios_knl_Task_LD_exit__C                                       
c3053d3c  ti_sysbios_knl_Task_LD_ready__C                                      
c3053d40  ti_sysbios_knl_Task_LM_switch__C                                     
c3053d44  ti_sysbios_knl_Task_Module_State_inactiveQ__O                        
c3053d48  ti_sysbios_knl_Task_Module__diagsEnabled__C                          
c3053d4c  ti_sysbios_knl_Task_Module__diagsIncluded__C                         
c3053d50  ti_sysbios_knl_Task_Module__diagsMask__C                             
c3053d54  ti_sysbios_knl_Task_Module__loggerFxn2__C                            
c3053d58  ti_sysbios_knl_Task_Module__loggerFxn4__C                            
c3053d5c  ti_sysbios_knl_Task_Module__loggerObj__C                             
c3053d60  ti_sysbios_knl_Task_Object__count__C                                 
c3053d64  ti_sysbios_knl_Task_allBlockedFunc__C                                
c3053d68  ti_sysbios_knl_Task_numConstructedTasks__C                           
c3053d6c  ti_sysbios_timers_timer64_Timer_E_cannotSupport__C                   
c3053d70  ti_sysbios_timers_timer64_Timer_Module__diagsEnabled__C              
c3053d74  ti_sysbios_timers_timer64_Timer_Module__diagsIncluded__C             
c3053d78  ti_sysbios_timers_timer64_Timer_Module__diagsMask__C                 
c3053d7c  ti_sysbios_timers_timer64_Timer_freqDivisor__C                       
c3053d80  ti_sysbios_timers_timer64_Timer_numTimerDevices__C                   
c3053d84  ti_sysbios_timers_timer64_TimestampProvider_Module__diagsEnabled__C  
c3053d88  ti_sysbios_timers_timer64_TimestampProvider_Module__diagsIncluded__C 
c3053d8c  ti_sysbios_timers_timer64_TimestampProvider_Module__diagsMask__C     
c3053d90  ti_sysbios_utils_Load_LS_cpuLoad__C                                  
c3053d94  ti_sysbios_utils_Load_Module__diagsEnabled__C                        
c3053d98  ti_sysbios_utils_Load_Module__diagsIncluded__C                       
c3053d9c  ti_sysbios_utils_Load_Module__diagsMask__C                           
c3053da0  ti_sysbios_utils_Load_Module__loggerFxn1__C                          
c3053da4  ti_sysbios_utils_Load_Module__loggerObj__C                           
c3053da8  ti_sysbios_utils_Load_postUpdate__C                                  
c3053dac  ti_sysbios_utils_Load_windowInMs__C                                  
c3053db0  ti_uia_loggers_LoggerStopMode_Module__diagsEnabled__C                
c3053db4  ti_uia_loggers_LoggerStopMode_Module__diagsIncluded__C               
c3053db8  ti_uia_loggers_LoggerStopMode_Module__diagsMask__C                   
c3053dbc  ti_uia_loggers_LoggerStopMode_Object__count__C                       
c3053dc0  ti_uia_runtime_ILoggerSnapshot_Interface__BASE__C                    
c3053dc4  ti_uia_runtime_IUIATransfer_Interface__BASE__C                       
c3053dc8  xdc_runtime_Assert_E_assertFailed__C                                 
c3053dcc  xdc_runtime_Core_A_initializedParams__C                              
c3053dd0  xdc_runtime_Core_Module__diagsEnabled__C                             
c3053dd4  xdc_runtime_Core_Module__diagsIncluded__C                            
c3053dd8  xdc_runtime_Core_Module__diagsMask__C                                
c3053ddc  xdc_runtime_Error_E_memory__C                                        
c3053de0  xdc_runtime_Error_Module__diagsEnabled__C                            
c3053de4  xdc_runtime_Error_Module__diagsIncluded__C                           
c3053de8  xdc_runtime_Error_Module__diagsMask__C                               
c3053dec  xdc_runtime_Error_Module__loggerFxn8__C                              
c3053df0  xdc_runtime_Error_Module__loggerObj__C                               
c3053df4  xdc_runtime_Error_policyFxn__C                                       
c3053df8  xdc_runtime_Error_raiseHook__C                                       
c3053dfc  xdc_runtime_IFilterLogger_Interface__BASE__C                         
c3053e00  xdc_runtime_IGateProvider_Interface__BASE__C                         
c3053e04  xdc_runtime_IHeap_Interface__BASE__C                                 
c3053e08  xdc_runtime_ILogger_Interface__BASE__C                               
c3053e0c  xdc_runtime_IModule_Interface__BASE__C                               
c3053e10  xdc_runtime_Log_L_error__C                                           
c3053e14  xdc_runtime_LoggerBuf_E_badLevel__C                                  
c3053e18  xdc_runtime_LoggerBuf_Module__gateObj__C                             
c3053e1c  xdc_runtime_LoggerBuf_Object__count__C                               
c3053e20  xdc_runtime_LoggerBuf_statusLogger__C                                
c3053e24  xdc_runtime_Memory_defaultHeapInstance__C                            
c3053e28  xdc_runtime_Startup_execImpl__C                                      
c3053e2c  xdc_runtime_Startup_lastFxns__A                                      
c3053e30  xdc_runtime_Startup_maxPasses__C                                     
c3053e34  xdc_runtime_Startup_sfxnRts__C                                       
c3053e38  xdc_runtime_Startup_sfxnTab__C                                       
c3053e3c  xdc_runtime_SysMin_bufSize__C                                        
c3053e40  xdc_runtime_SysMin_outputFunc__C                                     
c3053e44  xdc_runtime_System_Module__gateObj__C                                
c3053e48  xdc_runtime_System_abortFxn__C                                       
c3053e4c  xdc_runtime_System_exitFxn__C                                        
c3053e50  xdc_runtime_System_extendFxn__C                                      
c3053e54  xdc_runtime_System_maxAtexitHandlers__C                              
c3053e58  xdc_runtime_Text_charTab__C                                          
c3053e5c  xdc_runtime_Text_nameEmpty__C                                        
c3053e60  xdc_runtime_Text_nameStatic__C                                       
c3053e64  xdc_runtime_Text_nameUnknown__C                                      
c3053e68  xdc_runtime_Text_visitRopeFxn__C                                     
c3053e6c  ti_sysbios_family_arm_arm9_Mmu_enableMMU__C                          
c3053e6e  ti_sysbios_family_arm_da830_Hwi_Module__id__C                        
c3053e70  ti_sysbios_family_arm_da830_Hwi_Module__loggerDefined__C             
c3053e72  ti_sysbios_family_arm_exc_Exception_Module__id__C                    
c3053e74  ti_sysbios_gates_GateMutex_Module__id__C                             
c3053e76  ti_sysbios_hal_Hwi_Module__id__C                                     
c3053e78  ti_sysbios_heaps_HeapMem_Module__id__C                               
c3053e7a  ti_sysbios_heaps_HeapTrack_Module__id__C                             
c3053e7c  ti_sysbios_knl_Clock_Module__id__C                                   
c3053e7e  ti_sysbios_knl_Clock_Module__loggerDefined__C                        
c3053e80  ti_sysbios_knl_Semaphore_Module__id__C                               
c3053e82  ti_sysbios_knl_Semaphore_Module__loggerDefined__C                    
c3053e84  ti_sysbios_knl_Swi_Module__id__C                                     
c3053e86  ti_sysbios_knl_Swi_Module__loggerDefined__C                          
c3053e88  ti_sysbios_knl_Task_Module__id__C                                    
c3053e8a  ti_sysbios_knl_Task_Module__loggerDefined__C                         
c3053e8c  ti_sysbios_timers_timer64_Timer_Module__id__C                        
c3053e8e  ti_sysbios_timers_timer64_Timer_startupNeeded__C                     
c3053e90  ti_sysbios_timers_timer64_Timer_useTimer64pRegMap__C                 
c3053e92  ti_sysbios_timers_timer64_TimestampProvider_Module__id__C            
c3053e94  ti_sysbios_timers_timer64_TimestampProvider_useClockTimer__C         
c3053e96  ti_sysbios_utils_Load_Module__id__C                                  
c3053e98  ti_sysbios_utils_Load_Module__loggerDefined__C                       
c3053e9a  ti_sysbios_utils_Load_updateInIdle__C                                
c3053e9c  ti_uia_loggers_LoggerStopMode_Module__id__C                          
c3053e9e  ti_uia_loggers_LoggerStopMode_isTimestampEnabled__C                  
c3053ea0  xdc_runtime_Core_Module__id__C                                       
c3053ea2  xdc_runtime_Error_Module__loggerDefined__C                           
c3053ea4  xdc_runtime_Error_maxDepth__C                                        
c3053ea6  xdc_runtime_LoggerBuf_Module__id__C                                  
c3053ea8  xdc_runtime_LoggerBuf_filterByLevel__C                               
c3053eaa  xdc_runtime_Memory_Module__id__C                                     
c3053eac  xdc_runtime_SysMin_flushAtExit__C                                    
c3053eae  xdc_runtime_Text_charCnt__C                                          
c3053eb0  xdc_runtime_Text_isLoaded__C                                         
c3053eb2  xdc_runtime_Text_registryModsLastId__C                               
c3053eb4  xdc_runtime_Text_unnamedModsLastId__C                                
c3053eb6  xdc_runtime_Text_charTab__A                                          
c3054000  ti_sysbios_family_arm_arm9_Mmu_Module_State_0_tableBuf__A            
c3058000  __stack                                                              
c3058800  __STACK_END                                                          
c3058800  __TI_static_base__                                                   
c3058e28  __TI_Handler_Table_Base                                              
c3058e30  __TI_CINIT_Base                                                      
c3058e30  __TI_Handler_Table_Limit                                             
c3058e40  __TI_CINIT_Limit                                                     
fffee000  ti_sysbios_family_arm_da830_Hwi_cpIntc                               
ffff0000  ti_sysbios_family_arm_da830_Hwi_vectors                              
ffff0040  ti_sysbios_family_arm_da830_Hwi0                                     
ffff0040  ti_sysbios_family_arm_da830_Hwi_vectorTable                          
ffff0048  ti_sysbios_family_arm_da830_Hwi1                                     
ffff0050  ti_sysbios_family_arm_da830_Hwi2                                     
ffff0058  ti_sysbios_family_arm_da830_Hwi3                                     
ffff0060  ti_sysbios_family_arm_da830_Hwi4                                     
ffff0068  ti_sysbios_family_arm_da830_Hwi5                                     
ffff0070  ti_sysbios_family_arm_da830_Hwi6                                     
ffff0078  ti_sysbios_family_arm_da830_Hwi7                                     
ffff0080  ti_sysbios_family_arm_da830_Hwi8                                     
ffff0088  ti_sysbios_family_arm_da830_Hwi9                                     
ffff0090  ti_sysbios_family_arm_da830_Hwi10                                    
ffff0098  ti_sysbios_family_arm_da830_Hwi11                                    
ffff00a0  ti_sysbios_family_arm_da830_Hwi12                                    
ffff00a8  ti_sysbios_family_arm_da830_Hwi13                                    
ffff00b0  ti_sysbios_family_arm_da830_Hwi14                                    
ffff00b8  ti_sysbios_family_arm_da830_Hwi15                                    
ffff00c0  ti_sysbios_family_arm_da830_Hwi16                                    
ffff00c8  ti_sysbios_family_arm_da830_Hwi17                                    
ffff00d0  ti_sysbios_family_arm_da830_Hwi18                                    
ffff00d8  ti_sysbios_family_arm_da830_Hwi19                                    
ffff00e0  ti_sysbios_family_arm_da830_Hwi20                                    
ffff00e8  ti_sysbios_family_arm_da830_Hwi21                                    
ffff00f0  ti_sysbios_family_arm_da830_Hwi22                                    
ffff00f8  ti_sysbios_family_arm_da830_Hwi23                                    
ffff0100  ti_sysbios_family_arm_da830_Hwi24                                    
ffff0108  ti_sysbios_family_arm_da830_Hwi25                                    
ffff0110  ti_sysbios_family_arm_da830_Hwi26                                    
ffff0118  ti_sysbios_family_arm_da830_Hwi27                                    
ffff0120  ti_sysbios_family_arm_da830_Hwi28                                    
ffff0128  ti_sysbios_family_arm_da830_Hwi29                                    
ffff0130  ti_sysbios_family_arm_da830_Hwi30                                    
ffff0138  ti_sysbios_family_arm_da830_Hwi31                                    
ffff0140  ti_sysbios_family_arm_da830_Hwi32                                    
ffff0148  ti_sysbios_family_arm_da830_Hwi33                                    
ffff0150  ti_sysbios_family_arm_da830_Hwi34                                    
ffff0158  ti_sysbios_family_arm_da830_Hwi35                                    
ffff0160  ti_sysbios_family_arm_da830_Hwi36                                    
ffff0168  ti_sysbios_family_arm_da830_Hwi37                                    
ffff0170  ti_sysbios_family_arm_da830_Hwi38                                    
ffff0178  ti_sysbios_family_arm_da830_Hwi39                                    
ffff0180  ti_sysbios_family_arm_da830_Hwi40                                    
ffff0188  ti_sysbios_family_arm_da830_Hwi41                                    
ffff0190  ti_sysbios_family_arm_da830_Hwi42                                    
ffff0198  ti_sysbios_family_arm_da830_Hwi43                                    
ffff01a0  ti_sysbios_family_arm_da830_Hwi44                                    
ffff01a8  ti_sysbios_family_arm_da830_Hwi45                                    
ffff01b0  ti_sysbios_family_arm_da830_Hwi46                                    
ffff01b8  ti_sysbios_family_arm_da830_Hwi47                                    
ffff01c0  ti_sysbios_family_arm_da830_Hwi48                                    
ffff01c8  ti_sysbios_family_arm_da830_Hwi49                                    
ffff01d0  ti_sysbios_family_arm_da830_Hwi50                                    
ffff01d8  ti_sysbios_family_arm_da830_Hwi51                                    
ffff01e0  ti_sysbios_family_arm_da830_Hwi52                                    
ffff01e8  ti_sysbios_family_arm_da830_Hwi53                                    
ffff01f0  ti_sysbios_family_arm_da830_Hwi54                                    
ffff01f8  ti_sysbios_family_arm_da830_Hwi55                                    
ffff0200  ti_sysbios_family_arm_da830_Hwi56                                    
ffff0208  ti_sysbios_family_arm_da830_Hwi57                                    
ffff0210  ti_sysbios_family_arm_da830_Hwi58                                    
ffff0218  ti_sysbios_family_arm_da830_Hwi59                                    
ffff0220  ti_sysbios_family_arm_da830_Hwi60                                    
ffff0228  ti_sysbios_family_arm_da830_Hwi61                                    
ffff0230  ti_sysbios_family_arm_da830_Hwi62                                    
ffff0238  ti_sysbios_family_arm_da830_Hwi63                                    
ffff0240  ti_sysbios_family_arm_da830_Hwi64                                    
ffff0248  ti_sysbios_family_arm_da830_Hwi65                                    
ffff0250  ti_sysbios_family_arm_da830_Hwi66                                    
ffff0258  ti_sysbios_family_arm_da830_Hwi67                                    
ffff0260  ti_sysbios_family_arm_da830_Hwi68                                    
ffff0268  ti_sysbios_family_arm_da830_Hwi69                                    
ffff0270  ti_sysbios_family_arm_da830_Hwi70                                    
ffff0278  ti_sysbios_family_arm_da830_Hwi71                                    
ffff0280  ti_sysbios_family_arm_da830_Hwi72                                    
ffff0288  ti_sysbios_family_arm_da830_Hwi73                                    
ffff0290  ti_sysbios_family_arm_da830_Hwi74                                    
ffff0298  ti_sysbios_family_arm_da830_Hwi75                                    
ffff02a0  ti_sysbios_family_arm_da830_Hwi76                                    
ffff02a8  ti_sysbios_family_arm_da830_Hwi77                                    
ffff02b0  ti_sysbios_family_arm_da830_Hwi78                                    
ffff02b8  ti_sysbios_family_arm_da830_Hwi79                                    
ffff02c0  ti_sysbios_family_arm_da830_Hwi80                                    
ffff02c8  ti_sysbios_family_arm_da830_Hwi81                                    
ffff02d0  ti_sysbios_family_arm_da830_Hwi82                                    
ffff02d8  ti_sysbios_family_arm_da830_Hwi83                                    
ffff02e0  ti_sysbios_family_arm_da830_Hwi84                                    
ffff02e8  ti_sysbios_family_arm_da830_Hwi85                                    
ffff02f0  ti_sysbios_family_arm_da830_Hwi86                                    
ffff02f8  ti_sysbios_family_arm_da830_Hwi87                                    
ffff0300  ti_sysbios_family_arm_da830_Hwi88                                    
ffff0308  ti_sysbios_family_arm_da830_Hwi89                                    
ffff0310  ti_sysbios_family_arm_da830_Hwi90                                    
ffff0318  ti_sysbios_family_arm_da830_Hwi91                                    
ffff0320  ti_sysbios_family_arm_da830_Hwi92                                    
ffff0328  ti_sysbios_family_arm_da830_Hwi93                                    
ffff0330  ti_sysbios_family_arm_da830_Hwi94                                    
ffff0338  ti_sysbios_family_arm_da830_Hwi95                                    
ffff0340  ti_sysbios_family_arm_da830_Hwi96                                    
ffff0348  ti_sysbios_family_arm_da830_Hwi97                                    
ffff0350  ti_sysbios_family_arm_da830_Hwi98                                    
ffff0358  ti_sysbios_family_arm_da830_Hwi99                                    
ffff0360  ti_sysbios_family_arm_da830_Hwi100                                   
ffffffff  __TI_pprof_out_hndl                                                  
ffffffff  __TI_prof_data_size                                                  
ffffffff  __TI_prof_data_start                                                 
ffffffff  __binit__                                                            
ffffffff  __c_args__                                                           
ffffffff  binit                                                                
UNDEFED   SHT$$INIT_ARRAY$$Base                                                
UNDEFED   SHT$$INIT_ARRAY$$Limit                                               

[1103 symbols]
